
kernel/kernel:     file format elf64-littleriscv


Disassembly of section .text:

0000000080000000 <_entry>:
    80000000:	0001d117          	auipc	sp,0x1d
    80000004:	eb010113          	addi	sp,sp,-336 # 8001ceb0 <stack0>
    80000008:	6505                	lui	a0,0x1
    8000000a:	f14025f3          	csrr	a1,mhartid
    8000000e:	0585                	addi	a1,a1,1
    80000010:	02b50533          	mul	a0,a0,a1
    80000014:	912a                	add	sp,sp,a0
    80000016:	450080ef          	jal	ra,80008466 <start>

000000008000001a <spin>:
    8000001a:	a001                	j	8000001a <spin>

000000008000001c <kinit>:
  struct run *freelist;
} kmem;

void
kinit()
{
    8000001c:	1141                	addi	sp,sp,-16
    8000001e:	e406                	sd	ra,8(sp)
    80000020:	e022                	sd	s0,0(sp)
    80000022:	0800                	addi	s0,sp,16
  initlock(&kmem.lock, "kmem");
    80000024:	0000b597          	auipc	a1,0xb
    80000028:	fdc58593          	addi	a1,a1,-36 # 8000b000 <etext>
    8000002c:	0000c517          	auipc	a0,0xc
    80000030:	a4450513          	addi	a0,a0,-1468 # 8000ba70 <kmem>
    80000034:	00009097          	auipc	ra,0x9
    80000038:	31a080e7          	jalr	794(ra) # 8000934e <initlock>
  freerange(end, (void*)PHYSTOP);
    8000003c:	47c5                	li	a5,17
    8000003e:	01b79593          	slli	a1,a5,0x1b
    80000042:	00025517          	auipc	a0,0x25
    80000046:	0ae50513          	addi	a0,a0,174 # 800250f0 <end>
    8000004a:	00000097          	auipc	ra,0x0
    8000004e:	012080e7          	jalr	18(ra) # 8000005c <freerange>
}
    80000052:	0001                	nop
    80000054:	60a2                	ld	ra,8(sp)
    80000056:	6402                	ld	s0,0(sp)
    80000058:	0141                	addi	sp,sp,16
    8000005a:	8082                	ret

000000008000005c <freerange>:

void
freerange(void *pa_start, void *pa_end)
{
    8000005c:	7179                	addi	sp,sp,-48
    8000005e:	f406                	sd	ra,40(sp)
    80000060:	f022                	sd	s0,32(sp)
    80000062:	1800                	addi	s0,sp,48
    80000064:	fca43c23          	sd	a0,-40(s0)
    80000068:	fcb43823          	sd	a1,-48(s0)
  char *p;
  p = (char*)PGROUNDUP((uint64)pa_start);
    8000006c:	fd843703          	ld	a4,-40(s0)
    80000070:	6785                	lui	a5,0x1
    80000072:	17fd                	addi	a5,a5,-1 # fff <_entry-0x7ffff001>
    80000074:	973e                	add	a4,a4,a5
    80000076:	77fd                	lui	a5,0xfffff
    80000078:	8ff9                	and	a5,a5,a4
    8000007a:	fef43423          	sd	a5,-24(s0)
  for(; p + PGSIZE <= (char*)pa_end; p += PGSIZE)
    8000007e:	a829                	j	80000098 <freerange+0x3c>
    kfree(p);
    80000080:	fe843503          	ld	a0,-24(s0)
    80000084:	00000097          	auipc	ra,0x0
    80000088:	030080e7          	jalr	48(ra) # 800000b4 <kfree>
  for(; p + PGSIZE <= (char*)pa_end; p += PGSIZE)
    8000008c:	fe843703          	ld	a4,-24(s0)
    80000090:	6785                	lui	a5,0x1
    80000092:	97ba                	add	a5,a5,a4
    80000094:	fef43423          	sd	a5,-24(s0)
    80000098:	fe843703          	ld	a4,-24(s0)
    8000009c:	6785                	lui	a5,0x1
    8000009e:	97ba                	add	a5,a5,a4
    800000a0:	fd043703          	ld	a4,-48(s0)
    800000a4:	fcf77ee3          	bgeu	a4,a5,80000080 <freerange+0x24>
}
    800000a8:	0001                	nop
    800000aa:	0001                	nop
    800000ac:	70a2                	ld	ra,40(sp)
    800000ae:	7402                	ld	s0,32(sp)
    800000b0:	6145                	addi	sp,sp,48
    800000b2:	8082                	ret

00000000800000b4 <kfree>:
// which normally should have been returned by a
// call to kalloc().  (The exception is when
// initializing the allocator; see kinit above.)
void
kfree(void *pa)
{
    800000b4:	7179                	addi	sp,sp,-48
    800000b6:	f406                	sd	ra,40(sp)
    800000b8:	f022                	sd	s0,32(sp)
    800000ba:	1800                	addi	s0,sp,48
    800000bc:	fca43c23          	sd	a0,-40(s0)
  struct run *r;

  if(((uint64)pa % PGSIZE) != 0 || (char*)pa < end || (uint64)pa >= PHYSTOP)
    800000c0:	fd843703          	ld	a4,-40(s0)
    800000c4:	6785                	lui	a5,0x1
    800000c6:	17fd                	addi	a5,a5,-1 # fff <_entry-0x7ffff001>
    800000c8:	8ff9                	and	a5,a5,a4
    800000ca:	ef99                	bnez	a5,800000e8 <kfree+0x34>
    800000cc:	fd843703          	ld	a4,-40(s0)
    800000d0:	00025797          	auipc	a5,0x25
    800000d4:	02078793          	addi	a5,a5,32 # 800250f0 <end>
    800000d8:	00f76863          	bltu	a4,a5,800000e8 <kfree+0x34>
    800000dc:	fd843703          	ld	a4,-40(s0)
    800000e0:	47c5                	li	a5,17
    800000e2:	07ee                	slli	a5,a5,0x1b
    800000e4:	00f76a63          	bltu	a4,a5,800000f8 <kfree+0x44>
    panic("kfree");
    800000e8:	0000b517          	auipc	a0,0xb
    800000ec:	f2050513          	addi	a0,a0,-224 # 8000b008 <etext+0x8>
    800000f0:	00009097          	auipc	ra,0x9
    800000f4:	e46080e7          	jalr	-442(ra) # 80008f36 <panic>

  // Fill with junk to catch dangling refs.
  memset(pa, 1, PGSIZE);
    800000f8:	6605                	lui	a2,0x1
    800000fa:	4585                	li	a1,1
    800000fc:	fd843503          	ld	a0,-40(s0)
    80000100:	00000097          	auipc	ra,0x0
    80000104:	10c080e7          	jalr	268(ra) # 8000020c <memset>

  r = (struct run*)pa;
    80000108:	fd843783          	ld	a5,-40(s0)
    8000010c:	fef43423          	sd	a5,-24(s0)

  acquire(&kmem.lock);
    80000110:	0000c517          	auipc	a0,0xc
    80000114:	96050513          	addi	a0,a0,-1696 # 8000ba70 <kmem>
    80000118:	00009097          	auipc	ra,0x9
    8000011c:	266080e7          	jalr	614(ra) # 8000937e <acquire>
  r->next = kmem.freelist;
    80000120:	0000c797          	auipc	a5,0xc
    80000124:	95078793          	addi	a5,a5,-1712 # 8000ba70 <kmem>
    80000128:	6f98                	ld	a4,24(a5)
    8000012a:	fe843783          	ld	a5,-24(s0)
    8000012e:	e398                	sd	a4,0(a5)
  kmem.freelist = r;
    80000130:	0000c797          	auipc	a5,0xc
    80000134:	94078793          	addi	a5,a5,-1728 # 8000ba70 <kmem>
    80000138:	fe843703          	ld	a4,-24(s0)
    8000013c:	ef98                	sd	a4,24(a5)
  release(&kmem.lock);
    8000013e:	0000c517          	auipc	a0,0xc
    80000142:	93250513          	addi	a0,a0,-1742 # 8000ba70 <kmem>
    80000146:	00009097          	auipc	ra,0x9
    8000014a:	29c080e7          	jalr	668(ra) # 800093e2 <release>
}
    8000014e:	0001                	nop
    80000150:	70a2                	ld	ra,40(sp)
    80000152:	7402                	ld	s0,32(sp)
    80000154:	6145                	addi	sp,sp,48
    80000156:	8082                	ret

0000000080000158 <kalloc>:
// Allocate one 4096-byte page of physical memory.
// Returns a pointer that the kernel can use.
// Returns 0 if the memory cannot be allocated.
void *
kalloc(void)
{
    80000158:	1101                	addi	sp,sp,-32
    8000015a:	ec06                	sd	ra,24(sp)
    8000015c:	e822                	sd	s0,16(sp)
    8000015e:	1000                	addi	s0,sp,32
  struct run *r;

  acquire(&kmem.lock);
    80000160:	0000c517          	auipc	a0,0xc
    80000164:	91050513          	addi	a0,a0,-1776 # 8000ba70 <kmem>
    80000168:	00009097          	auipc	ra,0x9
    8000016c:	216080e7          	jalr	534(ra) # 8000937e <acquire>
  r = kmem.freelist;
    80000170:	0000c797          	auipc	a5,0xc
    80000174:	90078793          	addi	a5,a5,-1792 # 8000ba70 <kmem>
    80000178:	6f9c                	ld	a5,24(a5)
    8000017a:	fef43423          	sd	a5,-24(s0)
  if(r)
    8000017e:	fe843783          	ld	a5,-24(s0)
    80000182:	cb89                	beqz	a5,80000194 <kalloc+0x3c>
    kmem.freelist = r->next;
    80000184:	fe843783          	ld	a5,-24(s0)
    80000188:	6398                	ld	a4,0(a5)
    8000018a:	0000c797          	auipc	a5,0xc
    8000018e:	8e678793          	addi	a5,a5,-1818 # 8000ba70 <kmem>
    80000192:	ef98                	sd	a4,24(a5)
  release(&kmem.lock);
    80000194:	0000c517          	auipc	a0,0xc
    80000198:	8dc50513          	addi	a0,a0,-1828 # 8000ba70 <kmem>
    8000019c:	00009097          	auipc	ra,0x9
    800001a0:	246080e7          	jalr	582(ra) # 800093e2 <release>

  if(r)
    800001a4:	fe843783          	ld	a5,-24(s0)
    800001a8:	cb89                	beqz	a5,800001ba <kalloc+0x62>
    memset((char*)r, 5, PGSIZE); // fill with junk
    800001aa:	6605                	lui	a2,0x1
    800001ac:	4595                	li	a1,5
    800001ae:	fe843503          	ld	a0,-24(s0)
    800001b2:	00000097          	auipc	ra,0x0
    800001b6:	05a080e7          	jalr	90(ra) # 8000020c <memset>
  return (void*)r;
    800001ba:	fe843783          	ld	a5,-24(s0)
}
    800001be:	853e                	mv	a0,a5
    800001c0:	60e2                	ld	ra,24(sp)
    800001c2:	6442                	ld	s0,16(sp)
    800001c4:	6105                	addi	sp,sp,32
    800001c6:	8082                	ret

00000000800001c8 <get_freemem>:

int
get_freemem() {
    800001c8:	1101                	addi	sp,sp,-32
    800001ca:	ec22                	sd	s0,24(sp)
    800001cc:	1000                	addi	s0,sp,32
  int freemem = 0;
    800001ce:	fe042623          	sw	zero,-20(s0)
  for (struct run *p = kmem.freelist; p != 0; p = p->next) {
    800001d2:	0000c797          	auipc	a5,0xc
    800001d6:	89e78793          	addi	a5,a5,-1890 # 8000ba70 <kmem>
    800001da:	6f9c                	ld	a5,24(a5)
    800001dc:	fef43023          	sd	a5,-32(s0)
    800001e0:	a829                	j	800001fa <get_freemem+0x32>
    freemem += PGSIZE;
    800001e2:	fec42783          	lw	a5,-20(s0)
    800001e6:	873e                	mv	a4,a5
    800001e8:	6785                	lui	a5,0x1
    800001ea:	9fb9                	addw	a5,a5,a4
    800001ec:	fef42623          	sw	a5,-20(s0)
  for (struct run *p = kmem.freelist; p != 0; p = p->next) {
    800001f0:	fe043783          	ld	a5,-32(s0)
    800001f4:	639c                	ld	a5,0(a5)
    800001f6:	fef43023          	sd	a5,-32(s0)
    800001fa:	fe043783          	ld	a5,-32(s0)
    800001fe:	f3f5                	bnez	a5,800001e2 <get_freemem+0x1a>
  }
  return freemem;
    80000200:	fec42783          	lw	a5,-20(s0)
}
    80000204:	853e                	mv	a0,a5
    80000206:	6462                	ld	s0,24(sp)
    80000208:	6105                	addi	sp,sp,32
    8000020a:	8082                	ret

000000008000020c <memset>:
#include "types.h"

void*
memset(void *dst, int c, uint n)
{
    8000020c:	7179                	addi	sp,sp,-48
    8000020e:	f422                	sd	s0,40(sp)
    80000210:	1800                	addi	s0,sp,48
    80000212:	fca43c23          	sd	a0,-40(s0)
    80000216:	87ae                	mv	a5,a1
    80000218:	8732                	mv	a4,a2
    8000021a:	fcf42a23          	sw	a5,-44(s0)
    8000021e:	87ba                	mv	a5,a4
    80000220:	fcf42823          	sw	a5,-48(s0)
  char *cdst = (char *) dst;
    80000224:	fd843783          	ld	a5,-40(s0)
    80000228:	fef43023          	sd	a5,-32(s0)
  int i;
  for(i = 0; i < n; i++){
    8000022c:	fe042623          	sw	zero,-20(s0)
    80000230:	a00d                	j	80000252 <memset+0x46>
    cdst[i] = c;
    80000232:	fec42783          	lw	a5,-20(s0)
    80000236:	fe043703          	ld	a4,-32(s0)
    8000023a:	97ba                	add	a5,a5,a4
    8000023c:	fd442703          	lw	a4,-44(s0)
    80000240:	0ff77713          	zext.b	a4,a4
    80000244:	00e78023          	sb	a4,0(a5) # 1000 <_entry-0x7ffff000>
  for(i = 0; i < n; i++){
    80000248:	fec42783          	lw	a5,-20(s0)
    8000024c:	2785                	addiw	a5,a5,1
    8000024e:	fef42623          	sw	a5,-20(s0)
    80000252:	fec42703          	lw	a4,-20(s0)
    80000256:	fd042783          	lw	a5,-48(s0)
    8000025a:	2781                	sext.w	a5,a5
    8000025c:	fcf76be3          	bltu	a4,a5,80000232 <memset+0x26>
  }
  return dst;
    80000260:	fd843783          	ld	a5,-40(s0)
}
    80000264:	853e                	mv	a0,a5
    80000266:	7422                	ld	s0,40(sp)
    80000268:	6145                	addi	sp,sp,48
    8000026a:	8082                	ret

000000008000026c <memcmp>:

int
memcmp(const void *v1, const void *v2, uint n)
{
    8000026c:	7139                	addi	sp,sp,-64
    8000026e:	fc22                	sd	s0,56(sp)
    80000270:	0080                	addi	s0,sp,64
    80000272:	fca43c23          	sd	a0,-40(s0)
    80000276:	fcb43823          	sd	a1,-48(s0)
    8000027a:	87b2                	mv	a5,a2
    8000027c:	fcf42623          	sw	a5,-52(s0)
  const uchar *s1, *s2;

  s1 = v1;
    80000280:	fd843783          	ld	a5,-40(s0)
    80000284:	fef43423          	sd	a5,-24(s0)
  s2 = v2;
    80000288:	fd043783          	ld	a5,-48(s0)
    8000028c:	fef43023          	sd	a5,-32(s0)
  while(n-- > 0){
    80000290:	a0a1                	j	800002d8 <memcmp+0x6c>
    if(*s1 != *s2)
    80000292:	fe843783          	ld	a5,-24(s0)
    80000296:	0007c703          	lbu	a4,0(a5)
    8000029a:	fe043783          	ld	a5,-32(s0)
    8000029e:	0007c783          	lbu	a5,0(a5)
    800002a2:	02f70163          	beq	a4,a5,800002c4 <memcmp+0x58>
      return *s1 - *s2;
    800002a6:	fe843783          	ld	a5,-24(s0)
    800002aa:	0007c783          	lbu	a5,0(a5)
    800002ae:	0007871b          	sext.w	a4,a5
    800002b2:	fe043783          	ld	a5,-32(s0)
    800002b6:	0007c783          	lbu	a5,0(a5)
    800002ba:	2781                	sext.w	a5,a5
    800002bc:	40f707bb          	subw	a5,a4,a5
    800002c0:	2781                	sext.w	a5,a5
    800002c2:	a01d                	j	800002e8 <memcmp+0x7c>
    s1++, s2++;
    800002c4:	fe843783          	ld	a5,-24(s0)
    800002c8:	0785                	addi	a5,a5,1
    800002ca:	fef43423          	sd	a5,-24(s0)
    800002ce:	fe043783          	ld	a5,-32(s0)
    800002d2:	0785                	addi	a5,a5,1
    800002d4:	fef43023          	sd	a5,-32(s0)
  while(n-- > 0){
    800002d8:	fcc42783          	lw	a5,-52(s0)
    800002dc:	fff7871b          	addiw	a4,a5,-1
    800002e0:	fce42623          	sw	a4,-52(s0)
    800002e4:	f7dd                	bnez	a5,80000292 <memcmp+0x26>
  }

  return 0;
    800002e6:	4781                	li	a5,0
}
    800002e8:	853e                	mv	a0,a5
    800002ea:	7462                	ld	s0,56(sp)
    800002ec:	6121                	addi	sp,sp,64
    800002ee:	8082                	ret

00000000800002f0 <memmove>:

void*
memmove(void *dst, const void *src, uint n)
{
    800002f0:	7139                	addi	sp,sp,-64
    800002f2:	fc22                	sd	s0,56(sp)
    800002f4:	0080                	addi	s0,sp,64
    800002f6:	fca43c23          	sd	a0,-40(s0)
    800002fa:	fcb43823          	sd	a1,-48(s0)
    800002fe:	87b2                	mv	a5,a2
    80000300:	fcf42623          	sw	a5,-52(s0)
  const char *s;
  char *d;

  if(n == 0)
    80000304:	fcc42783          	lw	a5,-52(s0)
    80000308:	2781                	sext.w	a5,a5
    8000030a:	e781                	bnez	a5,80000312 <memmove+0x22>
    return dst;
    8000030c:	fd843783          	ld	a5,-40(s0)
    80000310:	a855                	j	800003c4 <memmove+0xd4>
  
  s = src;
    80000312:	fd043783          	ld	a5,-48(s0)
    80000316:	fef43423          	sd	a5,-24(s0)
  d = dst;
    8000031a:	fd843783          	ld	a5,-40(s0)
    8000031e:	fef43023          	sd	a5,-32(s0)
  if(s < d && s + n > d){
    80000322:	fe843703          	ld	a4,-24(s0)
    80000326:	fe043783          	ld	a5,-32(s0)
    8000032a:	08f77463          	bgeu	a4,a5,800003b2 <memmove+0xc2>
    8000032e:	fcc46783          	lwu	a5,-52(s0)
    80000332:	fe843703          	ld	a4,-24(s0)
    80000336:	97ba                	add	a5,a5,a4
    80000338:	fe043703          	ld	a4,-32(s0)
    8000033c:	06f77b63          	bgeu	a4,a5,800003b2 <memmove+0xc2>
    s += n;
    80000340:	fcc46783          	lwu	a5,-52(s0)
    80000344:	fe843703          	ld	a4,-24(s0)
    80000348:	97ba                	add	a5,a5,a4
    8000034a:	fef43423          	sd	a5,-24(s0)
    d += n;
    8000034e:	fcc46783          	lwu	a5,-52(s0)
    80000352:	fe043703          	ld	a4,-32(s0)
    80000356:	97ba                	add	a5,a5,a4
    80000358:	fef43023          	sd	a5,-32(s0)
    while(n-- > 0)
    8000035c:	a01d                	j	80000382 <memmove+0x92>
      *--d = *--s;
    8000035e:	fe843783          	ld	a5,-24(s0)
    80000362:	17fd                	addi	a5,a5,-1
    80000364:	fef43423          	sd	a5,-24(s0)
    80000368:	fe043783          	ld	a5,-32(s0)
    8000036c:	17fd                	addi	a5,a5,-1
    8000036e:	fef43023          	sd	a5,-32(s0)
    80000372:	fe843783          	ld	a5,-24(s0)
    80000376:	0007c703          	lbu	a4,0(a5)
    8000037a:	fe043783          	ld	a5,-32(s0)
    8000037e:	00e78023          	sb	a4,0(a5)
    while(n-- > 0)
    80000382:	fcc42783          	lw	a5,-52(s0)
    80000386:	fff7871b          	addiw	a4,a5,-1
    8000038a:	fce42623          	sw	a4,-52(s0)
    8000038e:	fbe1                	bnez	a5,8000035e <memmove+0x6e>
  if(s < d && s + n > d){
    80000390:	a805                	j	800003c0 <memmove+0xd0>
  } else
    while(n-- > 0)
      *d++ = *s++;
    80000392:	fe843703          	ld	a4,-24(s0)
    80000396:	00170793          	addi	a5,a4,1
    8000039a:	fef43423          	sd	a5,-24(s0)
    8000039e:	fe043783          	ld	a5,-32(s0)
    800003a2:	00178693          	addi	a3,a5,1
    800003a6:	fed43023          	sd	a3,-32(s0)
    800003aa:	00074703          	lbu	a4,0(a4)
    800003ae:	00e78023          	sb	a4,0(a5)
    while(n-- > 0)
    800003b2:	fcc42783          	lw	a5,-52(s0)
    800003b6:	fff7871b          	addiw	a4,a5,-1
    800003ba:	fce42623          	sw	a4,-52(s0)
    800003be:	fbf1                	bnez	a5,80000392 <memmove+0xa2>

  return dst;
    800003c0:	fd843783          	ld	a5,-40(s0)
}
    800003c4:	853e                	mv	a0,a5
    800003c6:	7462                	ld	s0,56(sp)
    800003c8:	6121                	addi	sp,sp,64
    800003ca:	8082                	ret

00000000800003cc <memcpy>:

// memcpy exists to placate GCC.  Use memmove.
void*
memcpy(void *dst, const void *src, uint n)
{
    800003cc:	7179                	addi	sp,sp,-48
    800003ce:	f406                	sd	ra,40(sp)
    800003d0:	f022                	sd	s0,32(sp)
    800003d2:	1800                	addi	s0,sp,48
    800003d4:	fea43423          	sd	a0,-24(s0)
    800003d8:	feb43023          	sd	a1,-32(s0)
    800003dc:	87b2                	mv	a5,a2
    800003de:	fcf42e23          	sw	a5,-36(s0)
  return memmove(dst, src, n);
    800003e2:	fdc42783          	lw	a5,-36(s0)
    800003e6:	863e                	mv	a2,a5
    800003e8:	fe043583          	ld	a1,-32(s0)
    800003ec:	fe843503          	ld	a0,-24(s0)
    800003f0:	00000097          	auipc	ra,0x0
    800003f4:	f00080e7          	jalr	-256(ra) # 800002f0 <memmove>
    800003f8:	87aa                	mv	a5,a0
}
    800003fa:	853e                	mv	a0,a5
    800003fc:	70a2                	ld	ra,40(sp)
    800003fe:	7402                	ld	s0,32(sp)
    80000400:	6145                	addi	sp,sp,48
    80000402:	8082                	ret

0000000080000404 <strncmp>:

int
strncmp(const char *p, const char *q, uint n)
{
    80000404:	7179                	addi	sp,sp,-48
    80000406:	f422                	sd	s0,40(sp)
    80000408:	1800                	addi	s0,sp,48
    8000040a:	fea43423          	sd	a0,-24(s0)
    8000040e:	feb43023          	sd	a1,-32(s0)
    80000412:	87b2                	mv	a5,a2
    80000414:	fcf42e23          	sw	a5,-36(s0)
  while(n > 0 && *p && *p == *q)
    80000418:	a005                	j	80000438 <strncmp+0x34>
    n--, p++, q++;
    8000041a:	fdc42783          	lw	a5,-36(s0)
    8000041e:	37fd                	addiw	a5,a5,-1
    80000420:	fcf42e23          	sw	a5,-36(s0)
    80000424:	fe843783          	ld	a5,-24(s0)
    80000428:	0785                	addi	a5,a5,1
    8000042a:	fef43423          	sd	a5,-24(s0)
    8000042e:	fe043783          	ld	a5,-32(s0)
    80000432:	0785                	addi	a5,a5,1
    80000434:	fef43023          	sd	a5,-32(s0)
  while(n > 0 && *p && *p == *q)
    80000438:	fdc42783          	lw	a5,-36(s0)
    8000043c:	2781                	sext.w	a5,a5
    8000043e:	c385                	beqz	a5,8000045e <strncmp+0x5a>
    80000440:	fe843783          	ld	a5,-24(s0)
    80000444:	0007c783          	lbu	a5,0(a5)
    80000448:	cb99                	beqz	a5,8000045e <strncmp+0x5a>
    8000044a:	fe843783          	ld	a5,-24(s0)
    8000044e:	0007c703          	lbu	a4,0(a5)
    80000452:	fe043783          	ld	a5,-32(s0)
    80000456:	0007c783          	lbu	a5,0(a5)
    8000045a:	fcf700e3          	beq	a4,a5,8000041a <strncmp+0x16>
  if(n == 0)
    8000045e:	fdc42783          	lw	a5,-36(s0)
    80000462:	2781                	sext.w	a5,a5
    80000464:	e399                	bnez	a5,8000046a <strncmp+0x66>
    return 0;
    80000466:	4781                	li	a5,0
    80000468:	a839                	j	80000486 <strncmp+0x82>
  return (uchar)*p - (uchar)*q;
    8000046a:	fe843783          	ld	a5,-24(s0)
    8000046e:	0007c783          	lbu	a5,0(a5)
    80000472:	0007871b          	sext.w	a4,a5
    80000476:	fe043783          	ld	a5,-32(s0)
    8000047a:	0007c783          	lbu	a5,0(a5)
    8000047e:	2781                	sext.w	a5,a5
    80000480:	40f707bb          	subw	a5,a4,a5
    80000484:	2781                	sext.w	a5,a5
}
    80000486:	853e                	mv	a0,a5
    80000488:	7422                	ld	s0,40(sp)
    8000048a:	6145                	addi	sp,sp,48
    8000048c:	8082                	ret

000000008000048e <strncpy>:

char*
strncpy(char *s, const char *t, int n)
{
    8000048e:	7139                	addi	sp,sp,-64
    80000490:	fc22                	sd	s0,56(sp)
    80000492:	0080                	addi	s0,sp,64
    80000494:	fca43c23          	sd	a0,-40(s0)
    80000498:	fcb43823          	sd	a1,-48(s0)
    8000049c:	87b2                	mv	a5,a2
    8000049e:	fcf42623          	sw	a5,-52(s0)
  char *os;

  os = s;
    800004a2:	fd843783          	ld	a5,-40(s0)
    800004a6:	fef43423          	sd	a5,-24(s0)
  while(n-- > 0 && (*s++ = *t++) != 0)
    800004aa:	0001                	nop
    800004ac:	fcc42783          	lw	a5,-52(s0)
    800004b0:	fff7871b          	addiw	a4,a5,-1
    800004b4:	fce42623          	sw	a4,-52(s0)
    800004b8:	02f05e63          	blez	a5,800004f4 <strncpy+0x66>
    800004bc:	fd043703          	ld	a4,-48(s0)
    800004c0:	00170793          	addi	a5,a4,1
    800004c4:	fcf43823          	sd	a5,-48(s0)
    800004c8:	fd843783          	ld	a5,-40(s0)
    800004cc:	00178693          	addi	a3,a5,1
    800004d0:	fcd43c23          	sd	a3,-40(s0)
    800004d4:	00074703          	lbu	a4,0(a4)
    800004d8:	00e78023          	sb	a4,0(a5)
    800004dc:	0007c783          	lbu	a5,0(a5)
    800004e0:	f7f1                	bnez	a5,800004ac <strncpy+0x1e>
    ;
  while(n-- > 0)
    800004e2:	a809                	j	800004f4 <strncpy+0x66>
    *s++ = 0;
    800004e4:	fd843783          	ld	a5,-40(s0)
    800004e8:	00178713          	addi	a4,a5,1
    800004ec:	fce43c23          	sd	a4,-40(s0)
    800004f0:	00078023          	sb	zero,0(a5)
  while(n-- > 0)
    800004f4:	fcc42783          	lw	a5,-52(s0)
    800004f8:	fff7871b          	addiw	a4,a5,-1
    800004fc:	fce42623          	sw	a4,-52(s0)
    80000500:	fef042e3          	bgtz	a5,800004e4 <strncpy+0x56>
  return os;
    80000504:	fe843783          	ld	a5,-24(s0)
}
    80000508:	853e                	mv	a0,a5
    8000050a:	7462                	ld	s0,56(sp)
    8000050c:	6121                	addi	sp,sp,64
    8000050e:	8082                	ret

0000000080000510 <safestrcpy>:

// Like strncpy but guaranteed to NUL-terminate.
char*
safestrcpy(char *s, const char *t, int n)
{
    80000510:	7139                	addi	sp,sp,-64
    80000512:	fc22                	sd	s0,56(sp)
    80000514:	0080                	addi	s0,sp,64
    80000516:	fca43c23          	sd	a0,-40(s0)
    8000051a:	fcb43823          	sd	a1,-48(s0)
    8000051e:	87b2                	mv	a5,a2
    80000520:	fcf42623          	sw	a5,-52(s0)
  char *os;

  os = s;
    80000524:	fd843783          	ld	a5,-40(s0)
    80000528:	fef43423          	sd	a5,-24(s0)
  if(n <= 0)
    8000052c:	fcc42783          	lw	a5,-52(s0)
    80000530:	2781                	sext.w	a5,a5
    80000532:	00f04563          	bgtz	a5,8000053c <safestrcpy+0x2c>
    return os;
    80000536:	fe843783          	ld	a5,-24(s0)
    8000053a:	a0a9                	j	80000584 <safestrcpy+0x74>
  while(--n > 0 && (*s++ = *t++) != 0)
    8000053c:	0001                	nop
    8000053e:	fcc42783          	lw	a5,-52(s0)
    80000542:	37fd                	addiw	a5,a5,-1
    80000544:	fcf42623          	sw	a5,-52(s0)
    80000548:	fcc42783          	lw	a5,-52(s0)
    8000054c:	2781                	sext.w	a5,a5
    8000054e:	02f05563          	blez	a5,80000578 <safestrcpy+0x68>
    80000552:	fd043703          	ld	a4,-48(s0)
    80000556:	00170793          	addi	a5,a4,1
    8000055a:	fcf43823          	sd	a5,-48(s0)
    8000055e:	fd843783          	ld	a5,-40(s0)
    80000562:	00178693          	addi	a3,a5,1
    80000566:	fcd43c23          	sd	a3,-40(s0)
    8000056a:	00074703          	lbu	a4,0(a4)
    8000056e:	00e78023          	sb	a4,0(a5)
    80000572:	0007c783          	lbu	a5,0(a5)
    80000576:	f7e1                	bnez	a5,8000053e <safestrcpy+0x2e>
    ;
  *s = 0;
    80000578:	fd843783          	ld	a5,-40(s0)
    8000057c:	00078023          	sb	zero,0(a5)
  return os;
    80000580:	fe843783          	ld	a5,-24(s0)
}
    80000584:	853e                	mv	a0,a5
    80000586:	7462                	ld	s0,56(sp)
    80000588:	6121                	addi	sp,sp,64
    8000058a:	8082                	ret

000000008000058c <strlen>:

int
strlen(const char *s)
{
    8000058c:	7179                	addi	sp,sp,-48
    8000058e:	f422                	sd	s0,40(sp)
    80000590:	1800                	addi	s0,sp,48
    80000592:	fca43c23          	sd	a0,-40(s0)
  int n;

  for(n = 0; s[n]; n++)
    80000596:	fe042623          	sw	zero,-20(s0)
    8000059a:	a031                	j	800005a6 <strlen+0x1a>
    8000059c:	fec42783          	lw	a5,-20(s0)
    800005a0:	2785                	addiw	a5,a5,1
    800005a2:	fef42623          	sw	a5,-20(s0)
    800005a6:	fec42783          	lw	a5,-20(s0)
    800005aa:	fd843703          	ld	a4,-40(s0)
    800005ae:	97ba                	add	a5,a5,a4
    800005b0:	0007c783          	lbu	a5,0(a5)
    800005b4:	f7e5                	bnez	a5,8000059c <strlen+0x10>
    ;
  return n;
    800005b6:	fec42783          	lw	a5,-20(s0)
}
    800005ba:	853e                	mv	a0,a5
    800005bc:	7422                	ld	s0,40(sp)
    800005be:	6145                	addi	sp,sp,48
    800005c0:	8082                	ret

00000000800005c2 <main>:
volatile static int started = 0;

// start() jumps here in supervisor mode on all CPUs.
void
main()
{
    800005c2:	1141                	addi	sp,sp,-16
    800005c4:	e406                	sd	ra,8(sp)
    800005c6:	e022                	sd	s0,0(sp)
    800005c8:	0800                	addi	s0,sp,16
  if(cpuid() == 0){
    800005ca:	00001097          	auipc	ra,0x1
    800005ce:	fd8080e7          	jalr	-40(ra) # 800015a2 <cpuid>
    800005d2:	87aa                	mv	a5,a0
    800005d4:	efd5                	bnez	a5,80000690 <main+0xce>
    consoleinit();
    800005d6:	00008097          	auipc	ra,0x8
    800005da:	53a080e7          	jalr	1338(ra) # 80008b10 <consoleinit>
    printfinit();
    800005de:	00009097          	auipc	ra,0x9
    800005e2:	9ac080e7          	jalr	-1620(ra) # 80008f8a <printfinit>
    printf("\n");
    800005e6:	0000b517          	auipc	a0,0xb
    800005ea:	a2a50513          	addi	a0,a0,-1494 # 8000b010 <etext+0x10>
    800005ee:	00008097          	auipc	ra,0x8
    800005f2:	6f2080e7          	jalr	1778(ra) # 80008ce0 <printf>
    printf("xv6 kernel is booting\n");
    800005f6:	0000b517          	auipc	a0,0xb
    800005fa:	a2250513          	addi	a0,a0,-1502 # 8000b018 <etext+0x18>
    800005fe:	00008097          	auipc	ra,0x8
    80000602:	6e2080e7          	jalr	1762(ra) # 80008ce0 <printf>
    printf("\n");
    80000606:	0000b517          	auipc	a0,0xb
    8000060a:	a0a50513          	addi	a0,a0,-1526 # 8000b010 <etext+0x10>
    8000060e:	00008097          	auipc	ra,0x8
    80000612:	6d2080e7          	jalr	1746(ra) # 80008ce0 <printf>
    kinit();         // physical page allocator
    80000616:	00000097          	auipc	ra,0x0
    8000061a:	a06080e7          	jalr	-1530(ra) # 8000001c <kinit>
    kvminit();       // create kernel page table
    8000061e:	00000097          	auipc	ra,0x0
    80000622:	1f4080e7          	jalr	500(ra) # 80000812 <kvminit>
    kvminithart();   // turn on paging
    80000626:	00000097          	auipc	ra,0x0
    8000062a:	212080e7          	jalr	530(ra) # 80000838 <kvminithart>
    procinit();      // process table
    8000062e:	00001097          	auipc	ra,0x1
    80000632:	ea6080e7          	jalr	-346(ra) # 800014d4 <procinit>
    trapinit();      // trap vectors
    80000636:	00002097          	auipc	ra,0x2
    8000063a:	1f0080e7          	jalr	496(ra) # 80002826 <trapinit>
    trapinithart();  // install kernel trap vector
    8000063e:	00002097          	auipc	ra,0x2
    80000642:	212080e7          	jalr	530(ra) # 80002850 <trapinithart>
    plicinit();      // set up interrupt controller
    80000646:	00007097          	auipc	ra,0x7
    8000064a:	134080e7          	jalr	308(ra) # 8000777a <plicinit>
    plicinithart();  // ask PLIC for device interrupts
    8000064e:	00007097          	auipc	ra,0x7
    80000652:	150080e7          	jalr	336(ra) # 8000779e <plicinithart>
    binit();         // buffer cache
    80000656:	00003097          	auipc	ra,0x3
    8000065a:	d00080e7          	jalr	-768(ra) # 80003356 <binit>
    iinit();         // inode table
    8000065e:	00003097          	auipc	ra,0x3
    80000662:	536080e7          	jalr	1334(ra) # 80003b94 <iinit>
    fileinit();      // file table
    80000666:	00005097          	auipc	ra,0x5
    8000066a:	f14080e7          	jalr	-236(ra) # 8000557a <fileinit>
    virtio_disk_init(); // emulated hard disk
    8000066e:	00007097          	auipc	ra,0x7
    80000672:	204080e7          	jalr	516(ra) # 80007872 <virtio_disk_init>
    userinit();      // first user process
    80000676:	00001097          	auipc	ra,0x1
    8000067a:	30a080e7          	jalr	778(ra) # 80001980 <userinit>
    __sync_synchronize();
    8000067e:	0ff0000f          	fence
    started = 1;
    80000682:	0000b797          	auipc	a5,0xb
    80000686:	40e78793          	addi	a5,a5,1038 # 8000ba90 <started>
    8000068a:	4705                	li	a4,1
    8000068c:	c398                	sw	a4,0(a5)
    8000068e:	a0a9                	j	800006d8 <main+0x116>
  } else {
    while(started == 0)
    80000690:	0001                	nop
    80000692:	0000b797          	auipc	a5,0xb
    80000696:	3fe78793          	addi	a5,a5,1022 # 8000ba90 <started>
    8000069a:	439c                	lw	a5,0(a5)
    8000069c:	2781                	sext.w	a5,a5
    8000069e:	dbf5                	beqz	a5,80000692 <main+0xd0>
      ;
    __sync_synchronize();
    800006a0:	0ff0000f          	fence
    printf("hart %d starting\n", cpuid());
    800006a4:	00001097          	auipc	ra,0x1
    800006a8:	efe080e7          	jalr	-258(ra) # 800015a2 <cpuid>
    800006ac:	87aa                	mv	a5,a0
    800006ae:	85be                	mv	a1,a5
    800006b0:	0000b517          	auipc	a0,0xb
    800006b4:	98050513          	addi	a0,a0,-1664 # 8000b030 <etext+0x30>
    800006b8:	00008097          	auipc	ra,0x8
    800006bc:	628080e7          	jalr	1576(ra) # 80008ce0 <printf>
    kvminithart();    // turn on paging
    800006c0:	00000097          	auipc	ra,0x0
    800006c4:	178080e7          	jalr	376(ra) # 80000838 <kvminithart>
    trapinithart();   // install kernel trap vector
    800006c8:	00002097          	auipc	ra,0x2
    800006cc:	188080e7          	jalr	392(ra) # 80002850 <trapinithart>
    plicinithart();   // ask PLIC for device interrupts
    800006d0:	00007097          	auipc	ra,0x7
    800006d4:	0ce080e7          	jalr	206(ra) # 8000779e <plicinithart>
  }

  scheduler();        
    800006d8:	00002097          	auipc	ra,0x2
    800006dc:	8d6080e7          	jalr	-1834(ra) # 80001fae <scheduler>

00000000800006e0 <w_satp>:

// supervisor address translation and protection;
// holds the address of the page table.
static inline void 
w_satp(uint64 x)
{
    800006e0:	1101                	addi	sp,sp,-32
    800006e2:	ec22                	sd	s0,24(sp)
    800006e4:	1000                	addi	s0,sp,32
    800006e6:	fea43423          	sd	a0,-24(s0)
  asm volatile("csrw satp, %0" : : "r" (x));
    800006ea:	fe843783          	ld	a5,-24(s0)
    800006ee:	18079073          	csrw	satp,a5
}
    800006f2:	0001                	nop
    800006f4:	6462                	ld	s0,24(sp)
    800006f6:	6105                	addi	sp,sp,32
    800006f8:	8082                	ret

00000000800006fa <sfence_vma>:
}

// flush the TLB.
static inline void
sfence_vma()
{
    800006fa:	1141                	addi	sp,sp,-16
    800006fc:	e422                	sd	s0,8(sp)
    800006fe:	0800                	addi	s0,sp,16
  // the zero, zero means flush all TLB entries.
  asm volatile("sfence.vma zero, zero");
    80000700:	12000073          	sfence.vma
}
    80000704:	0001                	nop
    80000706:	6422                	ld	s0,8(sp)
    80000708:	0141                	addi	sp,sp,16
    8000070a:	8082                	ret

000000008000070c <kvmmake>:
extern char trampoline[]; // trampoline.S

// Make a direct-map page table for the kernel.
pagetable_t
kvmmake(void)
{
    8000070c:	1101                	addi	sp,sp,-32
    8000070e:	ec06                	sd	ra,24(sp)
    80000710:	e822                	sd	s0,16(sp)
    80000712:	1000                	addi	s0,sp,32
  pagetable_t kpgtbl;

  kpgtbl = (pagetable_t) kalloc();
    80000714:	00000097          	auipc	ra,0x0
    80000718:	a44080e7          	jalr	-1468(ra) # 80000158 <kalloc>
    8000071c:	fea43423          	sd	a0,-24(s0)
  memset(kpgtbl, 0, PGSIZE);
    80000720:	6605                	lui	a2,0x1
    80000722:	4581                	li	a1,0
    80000724:	fe843503          	ld	a0,-24(s0)
    80000728:	00000097          	auipc	ra,0x0
    8000072c:	ae4080e7          	jalr	-1308(ra) # 8000020c <memset>

  // uart registers
  kvmmap(kpgtbl, UART0, UART0, PGSIZE, PTE_R | PTE_W);
    80000730:	4719                	li	a4,6
    80000732:	6685                	lui	a3,0x1
    80000734:	10000637          	lui	a2,0x10000
    80000738:	100005b7          	lui	a1,0x10000
    8000073c:	fe843503          	ld	a0,-24(s0)
    80000740:	00000097          	auipc	ra,0x0
    80000744:	2a2080e7          	jalr	674(ra) # 800009e2 <kvmmap>

  // virtio mmio disk interface
  kvmmap(kpgtbl, VIRTIO0, VIRTIO0, PGSIZE, PTE_R | PTE_W);
    80000748:	4719                	li	a4,6
    8000074a:	6685                	lui	a3,0x1
    8000074c:	10001637          	lui	a2,0x10001
    80000750:	100015b7          	lui	a1,0x10001
    80000754:	fe843503          	ld	a0,-24(s0)
    80000758:	00000097          	auipc	ra,0x0
    8000075c:	28a080e7          	jalr	650(ra) # 800009e2 <kvmmap>

  // PLIC
  kvmmap(kpgtbl, PLIC, PLIC, 0x400000, PTE_R | PTE_W);
    80000760:	4719                	li	a4,6
    80000762:	004006b7          	lui	a3,0x400
    80000766:	0c000637          	lui	a2,0xc000
    8000076a:	0c0005b7          	lui	a1,0xc000
    8000076e:	fe843503          	ld	a0,-24(s0)
    80000772:	00000097          	auipc	ra,0x0
    80000776:	270080e7          	jalr	624(ra) # 800009e2 <kvmmap>

  // map kernel text executable and read-only.
  kvmmap(kpgtbl, KERNBASE, KERNBASE, (uint64)etext-KERNBASE, PTE_R | PTE_X);
    8000077a:	0000b717          	auipc	a4,0xb
    8000077e:	88670713          	addi	a4,a4,-1914 # 8000b000 <etext>
    80000782:	800007b7          	lui	a5,0x80000
    80000786:	97ba                	add	a5,a5,a4
    80000788:	4729                	li	a4,10
    8000078a:	86be                	mv	a3,a5
    8000078c:	4785                	li	a5,1
    8000078e:	01f79613          	slli	a2,a5,0x1f
    80000792:	4785                	li	a5,1
    80000794:	01f79593          	slli	a1,a5,0x1f
    80000798:	fe843503          	ld	a0,-24(s0)
    8000079c:	00000097          	auipc	ra,0x0
    800007a0:	246080e7          	jalr	582(ra) # 800009e2 <kvmmap>

  // map kernel data and the physical RAM we'll make use of.
  kvmmap(kpgtbl, (uint64)etext, (uint64)etext, PHYSTOP-(uint64)etext, PTE_R | PTE_W);
    800007a4:	0000b597          	auipc	a1,0xb
    800007a8:	85c58593          	addi	a1,a1,-1956 # 8000b000 <etext>
    800007ac:	0000b617          	auipc	a2,0xb
    800007b0:	85460613          	addi	a2,a2,-1964 # 8000b000 <etext>
    800007b4:	0000b797          	auipc	a5,0xb
    800007b8:	84c78793          	addi	a5,a5,-1972 # 8000b000 <etext>
    800007bc:	4745                	li	a4,17
    800007be:	076e                	slli	a4,a4,0x1b
    800007c0:	40f707b3          	sub	a5,a4,a5
    800007c4:	4719                	li	a4,6
    800007c6:	86be                	mv	a3,a5
    800007c8:	fe843503          	ld	a0,-24(s0)
    800007cc:	00000097          	auipc	ra,0x0
    800007d0:	216080e7          	jalr	534(ra) # 800009e2 <kvmmap>

  // map the trampoline for trap entry/exit to
  // the highest virtual address in the kernel.
  kvmmap(kpgtbl, TRAMPOLINE, (uint64)trampoline, PGSIZE, PTE_R | PTE_X);
    800007d4:	0000a797          	auipc	a5,0xa
    800007d8:	82c78793          	addi	a5,a5,-2004 # 8000a000 <_trampoline>
    800007dc:	4729                	li	a4,10
    800007de:	6685                	lui	a3,0x1
    800007e0:	863e                	mv	a2,a5
    800007e2:	040007b7          	lui	a5,0x4000
    800007e6:	17fd                	addi	a5,a5,-1 # 3ffffff <_entry-0x7c000001>
    800007e8:	00c79593          	slli	a1,a5,0xc
    800007ec:	fe843503          	ld	a0,-24(s0)
    800007f0:	00000097          	auipc	ra,0x0
    800007f4:	1f2080e7          	jalr	498(ra) # 800009e2 <kvmmap>

  // allocate and map a kernel stack for each process.
  proc_mapstacks(kpgtbl);
    800007f8:	fe843503          	ld	a0,-24(s0)
    800007fc:	00001097          	auipc	ra,0x1
    80000800:	c1c080e7          	jalr	-996(ra) # 80001418 <proc_mapstacks>
  
  return kpgtbl;
    80000804:	fe843783          	ld	a5,-24(s0)
}
    80000808:	853e                	mv	a0,a5
    8000080a:	60e2                	ld	ra,24(sp)
    8000080c:	6442                	ld	s0,16(sp)
    8000080e:	6105                	addi	sp,sp,32
    80000810:	8082                	ret

0000000080000812 <kvminit>:

// Initialize the one kernel_pagetable
void
kvminit(void)
{
    80000812:	1141                	addi	sp,sp,-16
    80000814:	e406                	sd	ra,8(sp)
    80000816:	e022                	sd	s0,0(sp)
    80000818:	0800                	addi	s0,sp,16
  kernel_pagetable = kvmmake();
    8000081a:	00000097          	auipc	ra,0x0
    8000081e:	ef2080e7          	jalr	-270(ra) # 8000070c <kvmmake>
    80000822:	872a                	mv	a4,a0
    80000824:	0000b797          	auipc	a5,0xb
    80000828:	21c78793          	addi	a5,a5,540 # 8000ba40 <kernel_pagetable>
    8000082c:	e398                	sd	a4,0(a5)
}
    8000082e:	0001                	nop
    80000830:	60a2                	ld	ra,8(sp)
    80000832:	6402                	ld	s0,0(sp)
    80000834:	0141                	addi	sp,sp,16
    80000836:	8082                	ret

0000000080000838 <kvminithart>:

// Switch h/w page table register to the kernel's page table,
// and enable paging.
void
kvminithart()
{
    80000838:	1141                	addi	sp,sp,-16
    8000083a:	e406                	sd	ra,8(sp)
    8000083c:	e022                	sd	s0,0(sp)
    8000083e:	0800                	addi	s0,sp,16
  // wait for any previous writes to the page table memory to finish.
  sfence_vma();
    80000840:	00000097          	auipc	ra,0x0
    80000844:	eba080e7          	jalr	-326(ra) # 800006fa <sfence_vma>

  w_satp(MAKE_SATP(kernel_pagetable));
    80000848:	0000b797          	auipc	a5,0xb
    8000084c:	1f878793          	addi	a5,a5,504 # 8000ba40 <kernel_pagetable>
    80000850:	639c                	ld	a5,0(a5)
    80000852:	00c7d713          	srli	a4,a5,0xc
    80000856:	57fd                	li	a5,-1
    80000858:	17fe                	slli	a5,a5,0x3f
    8000085a:	8fd9                	or	a5,a5,a4
    8000085c:	853e                	mv	a0,a5
    8000085e:	00000097          	auipc	ra,0x0
    80000862:	e82080e7          	jalr	-382(ra) # 800006e0 <w_satp>

  // flush stale entries from the TLB.
  sfence_vma();
    80000866:	00000097          	auipc	ra,0x0
    8000086a:	e94080e7          	jalr	-364(ra) # 800006fa <sfence_vma>
}
    8000086e:	0001                	nop
    80000870:	60a2                	ld	ra,8(sp)
    80000872:	6402                	ld	s0,0(sp)
    80000874:	0141                	addi	sp,sp,16
    80000876:	8082                	ret

0000000080000878 <walk>:
//   21..29 -- 9 bits of level-1 index.
//   12..20 -- 9 bits of level-0 index.
//    0..11 -- 12 bits of byte offset within the page.
pte_t *
walk(pagetable_t pagetable, uint64 va, int alloc)
{
    80000878:	7139                	addi	sp,sp,-64
    8000087a:	fc06                	sd	ra,56(sp)
    8000087c:	f822                	sd	s0,48(sp)
    8000087e:	0080                	addi	s0,sp,64
    80000880:	fca43c23          	sd	a0,-40(s0)
    80000884:	fcb43823          	sd	a1,-48(s0)
    80000888:	87b2                	mv	a5,a2
    8000088a:	fcf42623          	sw	a5,-52(s0)
  if(va >= MAXVA)
    8000088e:	fd043703          	ld	a4,-48(s0)
    80000892:	57fd                	li	a5,-1
    80000894:	83e9                	srli	a5,a5,0x1a
    80000896:	00e7fa63          	bgeu	a5,a4,800008aa <walk+0x32>
    panic("walk");
    8000089a:	0000a517          	auipc	a0,0xa
    8000089e:	7ae50513          	addi	a0,a0,1966 # 8000b048 <etext+0x48>
    800008a2:	00008097          	auipc	ra,0x8
    800008a6:	694080e7          	jalr	1684(ra) # 80008f36 <panic>

  for(int level = 2; level > 0; level--) {
    800008aa:	4789                	li	a5,2
    800008ac:	fef42623          	sw	a5,-20(s0)
    800008b0:	a851                	j	80000944 <walk+0xcc>
    pte_t *pte = &pagetable[PX(level, va)];
    800008b2:	fec42783          	lw	a5,-20(s0)
    800008b6:	873e                	mv	a4,a5
    800008b8:	87ba                	mv	a5,a4
    800008ba:	0037979b          	slliw	a5,a5,0x3
    800008be:	9fb9                	addw	a5,a5,a4
    800008c0:	2781                	sext.w	a5,a5
    800008c2:	27b1                	addiw	a5,a5,12
    800008c4:	2781                	sext.w	a5,a5
    800008c6:	873e                	mv	a4,a5
    800008c8:	fd043783          	ld	a5,-48(s0)
    800008cc:	00e7d7b3          	srl	a5,a5,a4
    800008d0:	1ff7f793          	andi	a5,a5,511
    800008d4:	078e                	slli	a5,a5,0x3
    800008d6:	fd843703          	ld	a4,-40(s0)
    800008da:	97ba                	add	a5,a5,a4
    800008dc:	fef43023          	sd	a5,-32(s0)
    if(*pte & PTE_V) {
    800008e0:	fe043783          	ld	a5,-32(s0)
    800008e4:	639c                	ld	a5,0(a5)
    800008e6:	8b85                	andi	a5,a5,1
    800008e8:	cb89                	beqz	a5,800008fa <walk+0x82>
      pagetable = (pagetable_t)PTE2PA(*pte);
    800008ea:	fe043783          	ld	a5,-32(s0)
    800008ee:	639c                	ld	a5,0(a5)
    800008f0:	83a9                	srli	a5,a5,0xa
    800008f2:	07b2                	slli	a5,a5,0xc
    800008f4:	fcf43c23          	sd	a5,-40(s0)
    800008f8:	a089                	j	8000093a <walk+0xc2>
    } else {
      if(!alloc || (pagetable = (pde_t*)kalloc()) == 0)
    800008fa:	fcc42783          	lw	a5,-52(s0)
    800008fe:	2781                	sext.w	a5,a5
    80000900:	cb91                	beqz	a5,80000914 <walk+0x9c>
    80000902:	00000097          	auipc	ra,0x0
    80000906:	856080e7          	jalr	-1962(ra) # 80000158 <kalloc>
    8000090a:	fca43c23          	sd	a0,-40(s0)
    8000090e:	fd843783          	ld	a5,-40(s0)
    80000912:	e399                	bnez	a5,80000918 <walk+0xa0>
        return 0;
    80000914:	4781                	li	a5,0
    80000916:	a0a9                	j	80000960 <walk+0xe8>
      memset(pagetable, 0, PGSIZE);
    80000918:	6605                	lui	a2,0x1
    8000091a:	4581                	li	a1,0
    8000091c:	fd843503          	ld	a0,-40(s0)
    80000920:	00000097          	auipc	ra,0x0
    80000924:	8ec080e7          	jalr	-1812(ra) # 8000020c <memset>
      *pte = PA2PTE(pagetable) | PTE_V;
    80000928:	fd843783          	ld	a5,-40(s0)
    8000092c:	83b1                	srli	a5,a5,0xc
    8000092e:	07aa                	slli	a5,a5,0xa
    80000930:	0017e713          	ori	a4,a5,1
    80000934:	fe043783          	ld	a5,-32(s0)
    80000938:	e398                	sd	a4,0(a5)
  for(int level = 2; level > 0; level--) {
    8000093a:	fec42783          	lw	a5,-20(s0)
    8000093e:	37fd                	addiw	a5,a5,-1
    80000940:	fef42623          	sw	a5,-20(s0)
    80000944:	fec42783          	lw	a5,-20(s0)
    80000948:	2781                	sext.w	a5,a5
    8000094a:	f6f044e3          	bgtz	a5,800008b2 <walk+0x3a>
    }
  }
  return &pagetable[PX(0, va)];
    8000094e:	fd043783          	ld	a5,-48(s0)
    80000952:	83b1                	srli	a5,a5,0xc
    80000954:	1ff7f793          	andi	a5,a5,511
    80000958:	078e                	slli	a5,a5,0x3
    8000095a:	fd843703          	ld	a4,-40(s0)
    8000095e:	97ba                	add	a5,a5,a4
}
    80000960:	853e                	mv	a0,a5
    80000962:	70e2                	ld	ra,56(sp)
    80000964:	7442                	ld	s0,48(sp)
    80000966:	6121                	addi	sp,sp,64
    80000968:	8082                	ret

000000008000096a <walkaddr>:
// Look up a virtual address, return the physical address,
// or 0 if not mapped.
// Can only be used to look up user pages.
uint64
walkaddr(pagetable_t pagetable, uint64 va)
{
    8000096a:	7179                	addi	sp,sp,-48
    8000096c:	f406                	sd	ra,40(sp)
    8000096e:	f022                	sd	s0,32(sp)
    80000970:	1800                	addi	s0,sp,48
    80000972:	fca43c23          	sd	a0,-40(s0)
    80000976:	fcb43823          	sd	a1,-48(s0)
  pte_t *pte;
  uint64 pa;

  if(va >= MAXVA)
    8000097a:	fd043703          	ld	a4,-48(s0)
    8000097e:	57fd                	li	a5,-1
    80000980:	83e9                	srli	a5,a5,0x1a
    80000982:	00e7f463          	bgeu	a5,a4,8000098a <walkaddr+0x20>
    return 0;
    80000986:	4781                	li	a5,0
    80000988:	a881                	j	800009d8 <walkaddr+0x6e>

  pte = walk(pagetable, va, 0);
    8000098a:	4601                	li	a2,0
    8000098c:	fd043583          	ld	a1,-48(s0)
    80000990:	fd843503          	ld	a0,-40(s0)
    80000994:	00000097          	auipc	ra,0x0
    80000998:	ee4080e7          	jalr	-284(ra) # 80000878 <walk>
    8000099c:	fea43423          	sd	a0,-24(s0)
  if(pte == 0)
    800009a0:	fe843783          	ld	a5,-24(s0)
    800009a4:	e399                	bnez	a5,800009aa <walkaddr+0x40>
    return 0;
    800009a6:	4781                	li	a5,0
    800009a8:	a805                	j	800009d8 <walkaddr+0x6e>
  if((*pte & PTE_V) == 0)
    800009aa:	fe843783          	ld	a5,-24(s0)
    800009ae:	639c                	ld	a5,0(a5)
    800009b0:	8b85                	andi	a5,a5,1
    800009b2:	e399                	bnez	a5,800009b8 <walkaddr+0x4e>
    return 0;
    800009b4:	4781                	li	a5,0
    800009b6:	a00d                	j	800009d8 <walkaddr+0x6e>
  if((*pte & PTE_U) == 0)
    800009b8:	fe843783          	ld	a5,-24(s0)
    800009bc:	639c                	ld	a5,0(a5)
    800009be:	8bc1                	andi	a5,a5,16
    800009c0:	e399                	bnez	a5,800009c6 <walkaddr+0x5c>
    return 0;
    800009c2:	4781                	li	a5,0
    800009c4:	a811                	j	800009d8 <walkaddr+0x6e>
  pa = PTE2PA(*pte);
    800009c6:	fe843783          	ld	a5,-24(s0)
    800009ca:	639c                	ld	a5,0(a5)
    800009cc:	83a9                	srli	a5,a5,0xa
    800009ce:	07b2                	slli	a5,a5,0xc
    800009d0:	fef43023          	sd	a5,-32(s0)
  return pa;
    800009d4:	fe043783          	ld	a5,-32(s0)
}
    800009d8:	853e                	mv	a0,a5
    800009da:	70a2                	ld	ra,40(sp)
    800009dc:	7402                	ld	s0,32(sp)
    800009de:	6145                	addi	sp,sp,48
    800009e0:	8082                	ret

00000000800009e2 <kvmmap>:
// add a mapping to the kernel page table.
// only used when booting.
// does not flush TLB or enable paging.
void
kvmmap(pagetable_t kpgtbl, uint64 va, uint64 pa, uint64 sz, int perm)
{
    800009e2:	7139                	addi	sp,sp,-64
    800009e4:	fc06                	sd	ra,56(sp)
    800009e6:	f822                	sd	s0,48(sp)
    800009e8:	0080                	addi	s0,sp,64
    800009ea:	fea43423          	sd	a0,-24(s0)
    800009ee:	feb43023          	sd	a1,-32(s0)
    800009f2:	fcc43c23          	sd	a2,-40(s0)
    800009f6:	fcd43823          	sd	a3,-48(s0)
    800009fa:	87ba                	mv	a5,a4
    800009fc:	fcf42623          	sw	a5,-52(s0)
  if(mappages(kpgtbl, va, sz, pa, perm) != 0)
    80000a00:	fcc42783          	lw	a5,-52(s0)
    80000a04:	873e                	mv	a4,a5
    80000a06:	fd843683          	ld	a3,-40(s0)
    80000a0a:	fd043603          	ld	a2,-48(s0)
    80000a0e:	fe043583          	ld	a1,-32(s0)
    80000a12:	fe843503          	ld	a0,-24(s0)
    80000a16:	00000097          	auipc	ra,0x0
    80000a1a:	026080e7          	jalr	38(ra) # 80000a3c <mappages>
    80000a1e:	87aa                	mv	a5,a0
    80000a20:	cb89                	beqz	a5,80000a32 <kvmmap+0x50>
    panic("kvmmap");
    80000a22:	0000a517          	auipc	a0,0xa
    80000a26:	62e50513          	addi	a0,a0,1582 # 8000b050 <etext+0x50>
    80000a2a:	00008097          	auipc	ra,0x8
    80000a2e:	50c080e7          	jalr	1292(ra) # 80008f36 <panic>
}
    80000a32:	0001                	nop
    80000a34:	70e2                	ld	ra,56(sp)
    80000a36:	7442                	ld	s0,48(sp)
    80000a38:	6121                	addi	sp,sp,64
    80000a3a:	8082                	ret

0000000080000a3c <mappages>:
// physical addresses starting at pa. va and size might not
// be page-aligned. Returns 0 on success, -1 if walk() couldn't
// allocate a needed page-table page.
int
mappages(pagetable_t pagetable, uint64 va, uint64 size, uint64 pa, int perm)
{
    80000a3c:	711d                	addi	sp,sp,-96
    80000a3e:	ec86                	sd	ra,88(sp)
    80000a40:	e8a2                	sd	s0,80(sp)
    80000a42:	1080                	addi	s0,sp,96
    80000a44:	fca43423          	sd	a0,-56(s0)
    80000a48:	fcb43023          	sd	a1,-64(s0)
    80000a4c:	fac43c23          	sd	a2,-72(s0)
    80000a50:	fad43823          	sd	a3,-80(s0)
    80000a54:	87ba                	mv	a5,a4
    80000a56:	faf42623          	sw	a5,-84(s0)
  uint64 a, last;
  pte_t *pte;

  if(size == 0)
    80000a5a:	fb843783          	ld	a5,-72(s0)
    80000a5e:	eb89                	bnez	a5,80000a70 <mappages+0x34>
    panic("mappages: size");
    80000a60:	0000a517          	auipc	a0,0xa
    80000a64:	5f850513          	addi	a0,a0,1528 # 8000b058 <etext+0x58>
    80000a68:	00008097          	auipc	ra,0x8
    80000a6c:	4ce080e7          	jalr	1230(ra) # 80008f36 <panic>
  
  a = PGROUNDDOWN(va);
    80000a70:	fc043703          	ld	a4,-64(s0)
    80000a74:	77fd                	lui	a5,0xfffff
    80000a76:	8ff9                	and	a5,a5,a4
    80000a78:	fef43423          	sd	a5,-24(s0)
  last = PGROUNDDOWN(va + size - 1);
    80000a7c:	fc043703          	ld	a4,-64(s0)
    80000a80:	fb843783          	ld	a5,-72(s0)
    80000a84:	97ba                	add	a5,a5,a4
    80000a86:	fff78713          	addi	a4,a5,-1 # ffffffffffffefff <end+0xffffffff7ffd9f0f>
    80000a8a:	77fd                	lui	a5,0xfffff
    80000a8c:	8ff9                	and	a5,a5,a4
    80000a8e:	fef43023          	sd	a5,-32(s0)
  for(;;){
    if((pte = walk(pagetable, a, 1)) == 0)
    80000a92:	4605                	li	a2,1
    80000a94:	fe843583          	ld	a1,-24(s0)
    80000a98:	fc843503          	ld	a0,-56(s0)
    80000a9c:	00000097          	auipc	ra,0x0
    80000aa0:	ddc080e7          	jalr	-548(ra) # 80000878 <walk>
    80000aa4:	fca43c23          	sd	a0,-40(s0)
    80000aa8:	fd843783          	ld	a5,-40(s0)
    80000aac:	e399                	bnez	a5,80000ab2 <mappages+0x76>
      return -1;
    80000aae:	57fd                	li	a5,-1
    80000ab0:	a085                	j	80000b10 <mappages+0xd4>
    if(*pte & PTE_V)
    80000ab2:	fd843783          	ld	a5,-40(s0)
    80000ab6:	639c                	ld	a5,0(a5)
    80000ab8:	8b85                	andi	a5,a5,1
    80000aba:	cb89                	beqz	a5,80000acc <mappages+0x90>
      panic("mappages: remap");
    80000abc:	0000a517          	auipc	a0,0xa
    80000ac0:	5ac50513          	addi	a0,a0,1452 # 8000b068 <etext+0x68>
    80000ac4:	00008097          	auipc	ra,0x8
    80000ac8:	472080e7          	jalr	1138(ra) # 80008f36 <panic>
    *pte = PA2PTE(pa) | perm | PTE_V;
    80000acc:	fb043783          	ld	a5,-80(s0)
    80000ad0:	83b1                	srli	a5,a5,0xc
    80000ad2:	00a79713          	slli	a4,a5,0xa
    80000ad6:	fac42783          	lw	a5,-84(s0)
    80000ada:	8fd9                	or	a5,a5,a4
    80000adc:	0017e713          	ori	a4,a5,1
    80000ae0:	fd843783          	ld	a5,-40(s0)
    80000ae4:	e398                	sd	a4,0(a5)
    if(a == last)
    80000ae6:	fe843703          	ld	a4,-24(s0)
    80000aea:	fe043783          	ld	a5,-32(s0)
    80000aee:	00f70f63          	beq	a4,a5,80000b0c <mappages+0xd0>
      break;
    a += PGSIZE;
    80000af2:	fe843703          	ld	a4,-24(s0)
    80000af6:	6785                	lui	a5,0x1
    80000af8:	97ba                	add	a5,a5,a4
    80000afa:	fef43423          	sd	a5,-24(s0)
    pa += PGSIZE;
    80000afe:	fb043703          	ld	a4,-80(s0)
    80000b02:	6785                	lui	a5,0x1
    80000b04:	97ba                	add	a5,a5,a4
    80000b06:	faf43823          	sd	a5,-80(s0)
    if((pte = walk(pagetable, a, 1)) == 0)
    80000b0a:	b761                	j	80000a92 <mappages+0x56>
      break;
    80000b0c:	0001                	nop
  }
  return 0;
    80000b0e:	4781                	li	a5,0
}
    80000b10:	853e                	mv	a0,a5
    80000b12:	60e6                	ld	ra,88(sp)
    80000b14:	6446                	ld	s0,80(sp)
    80000b16:	6125                	addi	sp,sp,96
    80000b18:	8082                	ret

0000000080000b1a <uvmunmap>:
// Remove npages of mappings starting from va. va must be
// page-aligned. The mappings must exist.
// Optionally free the physical memory.
void
uvmunmap(pagetable_t pagetable, uint64 va, uint64 npages, int do_free)
{
    80000b1a:	715d                	addi	sp,sp,-80
    80000b1c:	e486                	sd	ra,72(sp)
    80000b1e:	e0a2                	sd	s0,64(sp)
    80000b20:	0880                	addi	s0,sp,80
    80000b22:	fca43423          	sd	a0,-56(s0)
    80000b26:	fcb43023          	sd	a1,-64(s0)
    80000b2a:	fac43c23          	sd	a2,-72(s0)
    80000b2e:	87b6                	mv	a5,a3
    80000b30:	faf42a23          	sw	a5,-76(s0)
  uint64 a;
  pte_t *pte;

  if((va % PGSIZE) != 0)
    80000b34:	fc043703          	ld	a4,-64(s0)
    80000b38:	6785                	lui	a5,0x1
    80000b3a:	17fd                	addi	a5,a5,-1 # fff <_entry-0x7ffff001>
    80000b3c:	8ff9                	and	a5,a5,a4
    80000b3e:	cb89                	beqz	a5,80000b50 <uvmunmap+0x36>
    panic("uvmunmap: not aligned");
    80000b40:	0000a517          	auipc	a0,0xa
    80000b44:	53850513          	addi	a0,a0,1336 # 8000b078 <etext+0x78>
    80000b48:	00008097          	auipc	ra,0x8
    80000b4c:	3ee080e7          	jalr	1006(ra) # 80008f36 <panic>

  for(a = va; a < va + npages*PGSIZE; a += PGSIZE){
    80000b50:	fc043783          	ld	a5,-64(s0)
    80000b54:	fef43423          	sd	a5,-24(s0)
    80000b58:	a045                	j	80000bf8 <uvmunmap+0xde>
    if((pte = walk(pagetable, a, 0)) == 0)
    80000b5a:	4601                	li	a2,0
    80000b5c:	fe843583          	ld	a1,-24(s0)
    80000b60:	fc843503          	ld	a0,-56(s0)
    80000b64:	00000097          	auipc	ra,0x0
    80000b68:	d14080e7          	jalr	-748(ra) # 80000878 <walk>
    80000b6c:	fea43023          	sd	a0,-32(s0)
    80000b70:	fe043783          	ld	a5,-32(s0)
    80000b74:	eb89                	bnez	a5,80000b86 <uvmunmap+0x6c>
      panic("uvmunmap: walk");
    80000b76:	0000a517          	auipc	a0,0xa
    80000b7a:	51a50513          	addi	a0,a0,1306 # 8000b090 <etext+0x90>
    80000b7e:	00008097          	auipc	ra,0x8
    80000b82:	3b8080e7          	jalr	952(ra) # 80008f36 <panic>
    if((*pte & PTE_V) == 0)
    80000b86:	fe043783          	ld	a5,-32(s0)
    80000b8a:	639c                	ld	a5,0(a5)
    80000b8c:	8b85                	andi	a5,a5,1
    80000b8e:	eb89                	bnez	a5,80000ba0 <uvmunmap+0x86>
      panic("uvmunmap: not mapped");
    80000b90:	0000a517          	auipc	a0,0xa
    80000b94:	51050513          	addi	a0,a0,1296 # 8000b0a0 <etext+0xa0>
    80000b98:	00008097          	auipc	ra,0x8
    80000b9c:	39e080e7          	jalr	926(ra) # 80008f36 <panic>
    if(PTE_FLAGS(*pte) == PTE_V)
    80000ba0:	fe043783          	ld	a5,-32(s0)
    80000ba4:	639c                	ld	a5,0(a5)
    80000ba6:	3ff7f713          	andi	a4,a5,1023
    80000baa:	4785                	li	a5,1
    80000bac:	00f71a63          	bne	a4,a5,80000bc0 <uvmunmap+0xa6>
      panic("uvmunmap: not a leaf");
    80000bb0:	0000a517          	auipc	a0,0xa
    80000bb4:	50850513          	addi	a0,a0,1288 # 8000b0b8 <etext+0xb8>
    80000bb8:	00008097          	auipc	ra,0x8
    80000bbc:	37e080e7          	jalr	894(ra) # 80008f36 <panic>
    if(do_free){
    80000bc0:	fb442783          	lw	a5,-76(s0)
    80000bc4:	2781                	sext.w	a5,a5
    80000bc6:	cf99                	beqz	a5,80000be4 <uvmunmap+0xca>
      uint64 pa = PTE2PA(*pte);
    80000bc8:	fe043783          	ld	a5,-32(s0)
    80000bcc:	639c                	ld	a5,0(a5)
    80000bce:	83a9                	srli	a5,a5,0xa
    80000bd0:	07b2                	slli	a5,a5,0xc
    80000bd2:	fcf43c23          	sd	a5,-40(s0)
      kfree((void*)pa);
    80000bd6:	fd843783          	ld	a5,-40(s0)
    80000bda:	853e                	mv	a0,a5
    80000bdc:	fffff097          	auipc	ra,0xfffff
    80000be0:	4d8080e7          	jalr	1240(ra) # 800000b4 <kfree>
    }
    *pte = 0;
    80000be4:	fe043783          	ld	a5,-32(s0)
    80000be8:	0007b023          	sd	zero,0(a5)
  for(a = va; a < va + npages*PGSIZE; a += PGSIZE){
    80000bec:	fe843703          	ld	a4,-24(s0)
    80000bf0:	6785                	lui	a5,0x1
    80000bf2:	97ba                	add	a5,a5,a4
    80000bf4:	fef43423          	sd	a5,-24(s0)
    80000bf8:	fb843783          	ld	a5,-72(s0)
    80000bfc:	00c79713          	slli	a4,a5,0xc
    80000c00:	fc043783          	ld	a5,-64(s0)
    80000c04:	97ba                	add	a5,a5,a4
    80000c06:	fe843703          	ld	a4,-24(s0)
    80000c0a:	f4f768e3          	bltu	a4,a5,80000b5a <uvmunmap+0x40>
  }
}
    80000c0e:	0001                	nop
    80000c10:	0001                	nop
    80000c12:	60a6                	ld	ra,72(sp)
    80000c14:	6406                	ld	s0,64(sp)
    80000c16:	6161                	addi	sp,sp,80
    80000c18:	8082                	ret

0000000080000c1a <uvmcreate>:

// create an empty user page table.
// returns 0 if out of memory.
pagetable_t
uvmcreate()
{
    80000c1a:	1101                	addi	sp,sp,-32
    80000c1c:	ec06                	sd	ra,24(sp)
    80000c1e:	e822                	sd	s0,16(sp)
    80000c20:	1000                	addi	s0,sp,32
  pagetable_t pagetable;
  pagetable = (pagetable_t) kalloc();
    80000c22:	fffff097          	auipc	ra,0xfffff
    80000c26:	536080e7          	jalr	1334(ra) # 80000158 <kalloc>
    80000c2a:	fea43423          	sd	a0,-24(s0)
  if(pagetable == 0)
    80000c2e:	fe843783          	ld	a5,-24(s0)
    80000c32:	e399                	bnez	a5,80000c38 <uvmcreate+0x1e>
    return 0;
    80000c34:	4781                	li	a5,0
    80000c36:	a819                	j	80000c4c <uvmcreate+0x32>
  memset(pagetable, 0, PGSIZE);
    80000c38:	6605                	lui	a2,0x1
    80000c3a:	4581                	li	a1,0
    80000c3c:	fe843503          	ld	a0,-24(s0)
    80000c40:	fffff097          	auipc	ra,0xfffff
    80000c44:	5cc080e7          	jalr	1484(ra) # 8000020c <memset>
  return pagetable;
    80000c48:	fe843783          	ld	a5,-24(s0)
}
    80000c4c:	853e                	mv	a0,a5
    80000c4e:	60e2                	ld	ra,24(sp)
    80000c50:	6442                	ld	s0,16(sp)
    80000c52:	6105                	addi	sp,sp,32
    80000c54:	8082                	ret

0000000080000c56 <uvmfirst>:
// Load the user initcode into address 0 of pagetable,
// for the very first process.
// sz must be less than a page.
void
uvmfirst(pagetable_t pagetable, uchar *src, uint sz)
{
    80000c56:	7139                	addi	sp,sp,-64
    80000c58:	fc06                	sd	ra,56(sp)
    80000c5a:	f822                	sd	s0,48(sp)
    80000c5c:	0080                	addi	s0,sp,64
    80000c5e:	fca43c23          	sd	a0,-40(s0)
    80000c62:	fcb43823          	sd	a1,-48(s0)
    80000c66:	87b2                	mv	a5,a2
    80000c68:	fcf42623          	sw	a5,-52(s0)
  char *mem;

  if(sz >= PGSIZE)
    80000c6c:	fcc42783          	lw	a5,-52(s0)
    80000c70:	0007871b          	sext.w	a4,a5
    80000c74:	6785                	lui	a5,0x1
    80000c76:	00f76a63          	bltu	a4,a5,80000c8a <uvmfirst+0x34>
    panic("uvmfirst: more than a page");
    80000c7a:	0000a517          	auipc	a0,0xa
    80000c7e:	45650513          	addi	a0,a0,1110 # 8000b0d0 <etext+0xd0>
    80000c82:	00008097          	auipc	ra,0x8
    80000c86:	2b4080e7          	jalr	692(ra) # 80008f36 <panic>
  mem = kalloc();
    80000c8a:	fffff097          	auipc	ra,0xfffff
    80000c8e:	4ce080e7          	jalr	1230(ra) # 80000158 <kalloc>
    80000c92:	fea43423          	sd	a0,-24(s0)
  memset(mem, 0, PGSIZE);
    80000c96:	6605                	lui	a2,0x1
    80000c98:	4581                	li	a1,0
    80000c9a:	fe843503          	ld	a0,-24(s0)
    80000c9e:	fffff097          	auipc	ra,0xfffff
    80000ca2:	56e080e7          	jalr	1390(ra) # 8000020c <memset>
  mappages(pagetable, 0, PGSIZE, (uint64)mem, PTE_W|PTE_R|PTE_X|PTE_U);
    80000ca6:	fe843783          	ld	a5,-24(s0)
    80000caa:	4779                	li	a4,30
    80000cac:	86be                	mv	a3,a5
    80000cae:	6605                	lui	a2,0x1
    80000cb0:	4581                	li	a1,0
    80000cb2:	fd843503          	ld	a0,-40(s0)
    80000cb6:	00000097          	auipc	ra,0x0
    80000cba:	d86080e7          	jalr	-634(ra) # 80000a3c <mappages>
  memmove(mem, src, sz);
    80000cbe:	fcc42783          	lw	a5,-52(s0)
    80000cc2:	863e                	mv	a2,a5
    80000cc4:	fd043583          	ld	a1,-48(s0)
    80000cc8:	fe843503          	ld	a0,-24(s0)
    80000ccc:	fffff097          	auipc	ra,0xfffff
    80000cd0:	624080e7          	jalr	1572(ra) # 800002f0 <memmove>
}
    80000cd4:	0001                	nop
    80000cd6:	70e2                	ld	ra,56(sp)
    80000cd8:	7442                	ld	s0,48(sp)
    80000cda:	6121                	addi	sp,sp,64
    80000cdc:	8082                	ret

0000000080000cde <uvmalloc>:

// Allocate PTEs and physical memory to grow process from oldsz to
// newsz, which need not be page aligned.  Returns new size or 0 on error.
uint64
uvmalloc(pagetable_t pagetable, uint64 oldsz, uint64 newsz, int xperm)
{
    80000cde:	7139                	addi	sp,sp,-64
    80000ce0:	fc06                	sd	ra,56(sp)
    80000ce2:	f822                	sd	s0,48(sp)
    80000ce4:	0080                	addi	s0,sp,64
    80000ce6:	fca43c23          	sd	a0,-40(s0)
    80000cea:	fcb43823          	sd	a1,-48(s0)
    80000cee:	fcc43423          	sd	a2,-56(s0)
    80000cf2:	87b6                	mv	a5,a3
    80000cf4:	fcf42223          	sw	a5,-60(s0)
  char *mem;
  uint64 a;

  if(newsz < oldsz)
    80000cf8:	fc843703          	ld	a4,-56(s0)
    80000cfc:	fd043783          	ld	a5,-48(s0)
    80000d00:	00f77563          	bgeu	a4,a5,80000d0a <uvmalloc+0x2c>
    return oldsz;
    80000d04:	fd043783          	ld	a5,-48(s0)
    80000d08:	a87d                	j	80000dc6 <uvmalloc+0xe8>

  oldsz = PGROUNDUP(oldsz);
    80000d0a:	fd043703          	ld	a4,-48(s0)
    80000d0e:	6785                	lui	a5,0x1
    80000d10:	17fd                	addi	a5,a5,-1 # fff <_entry-0x7ffff001>
    80000d12:	973e                	add	a4,a4,a5
    80000d14:	77fd                	lui	a5,0xfffff
    80000d16:	8ff9                	and	a5,a5,a4
    80000d18:	fcf43823          	sd	a5,-48(s0)
  for(a = oldsz; a < newsz; a += PGSIZE){
    80000d1c:	fd043783          	ld	a5,-48(s0)
    80000d20:	fef43423          	sd	a5,-24(s0)
    80000d24:	a849                	j	80000db6 <uvmalloc+0xd8>
    mem = kalloc();
    80000d26:	fffff097          	auipc	ra,0xfffff
    80000d2a:	432080e7          	jalr	1074(ra) # 80000158 <kalloc>
    80000d2e:	fea43023          	sd	a0,-32(s0)
    if(mem == 0){
    80000d32:	fe043783          	ld	a5,-32(s0)
    80000d36:	ef89                	bnez	a5,80000d50 <uvmalloc+0x72>
      uvmdealloc(pagetable, a, oldsz);
    80000d38:	fd043603          	ld	a2,-48(s0)
    80000d3c:	fe843583          	ld	a1,-24(s0)
    80000d40:	fd843503          	ld	a0,-40(s0)
    80000d44:	00000097          	auipc	ra,0x0
    80000d48:	08c080e7          	jalr	140(ra) # 80000dd0 <uvmdealloc>
      return 0;
    80000d4c:	4781                	li	a5,0
    80000d4e:	a8a5                	j	80000dc6 <uvmalloc+0xe8>
    }
    memset(mem, 0, PGSIZE);
    80000d50:	6605                	lui	a2,0x1
    80000d52:	4581                	li	a1,0
    80000d54:	fe043503          	ld	a0,-32(s0)
    80000d58:	fffff097          	auipc	ra,0xfffff
    80000d5c:	4b4080e7          	jalr	1204(ra) # 8000020c <memset>
    if(mappages(pagetable, a, PGSIZE, (uint64)mem, PTE_R|PTE_U|xperm) != 0){
    80000d60:	fe043783          	ld	a5,-32(s0)
    80000d64:	fc442703          	lw	a4,-60(s0)
    80000d68:	01276713          	ori	a4,a4,18
    80000d6c:	2701                	sext.w	a4,a4
    80000d6e:	86be                	mv	a3,a5
    80000d70:	6605                	lui	a2,0x1
    80000d72:	fe843583          	ld	a1,-24(s0)
    80000d76:	fd843503          	ld	a0,-40(s0)
    80000d7a:	00000097          	auipc	ra,0x0
    80000d7e:	cc2080e7          	jalr	-830(ra) # 80000a3c <mappages>
    80000d82:	87aa                	mv	a5,a0
    80000d84:	c39d                	beqz	a5,80000daa <uvmalloc+0xcc>
      kfree(mem);
    80000d86:	fe043503          	ld	a0,-32(s0)
    80000d8a:	fffff097          	auipc	ra,0xfffff
    80000d8e:	32a080e7          	jalr	810(ra) # 800000b4 <kfree>
      uvmdealloc(pagetable, a, oldsz);
    80000d92:	fd043603          	ld	a2,-48(s0)
    80000d96:	fe843583          	ld	a1,-24(s0)
    80000d9a:	fd843503          	ld	a0,-40(s0)
    80000d9e:	00000097          	auipc	ra,0x0
    80000da2:	032080e7          	jalr	50(ra) # 80000dd0 <uvmdealloc>
      return 0;
    80000da6:	4781                	li	a5,0
    80000da8:	a839                	j	80000dc6 <uvmalloc+0xe8>
  for(a = oldsz; a < newsz; a += PGSIZE){
    80000daa:	fe843703          	ld	a4,-24(s0)
    80000dae:	6785                	lui	a5,0x1
    80000db0:	97ba                	add	a5,a5,a4
    80000db2:	fef43423          	sd	a5,-24(s0)
    80000db6:	fe843703          	ld	a4,-24(s0)
    80000dba:	fc843783          	ld	a5,-56(s0)
    80000dbe:	f6f764e3          	bltu	a4,a5,80000d26 <uvmalloc+0x48>
    }
  }
  return newsz;
    80000dc2:	fc843783          	ld	a5,-56(s0)
}
    80000dc6:	853e                	mv	a0,a5
    80000dc8:	70e2                	ld	ra,56(sp)
    80000dca:	7442                	ld	s0,48(sp)
    80000dcc:	6121                	addi	sp,sp,64
    80000dce:	8082                	ret

0000000080000dd0 <uvmdealloc>:
// newsz.  oldsz and newsz need not be page-aligned, nor does newsz
// need to be less than oldsz.  oldsz can be larger than the actual
// process size.  Returns the new process size.
uint64
uvmdealloc(pagetable_t pagetable, uint64 oldsz, uint64 newsz)
{
    80000dd0:	7139                	addi	sp,sp,-64
    80000dd2:	fc06                	sd	ra,56(sp)
    80000dd4:	f822                	sd	s0,48(sp)
    80000dd6:	0080                	addi	s0,sp,64
    80000dd8:	fca43c23          	sd	a0,-40(s0)
    80000ddc:	fcb43823          	sd	a1,-48(s0)
    80000de0:	fcc43423          	sd	a2,-56(s0)
  if(newsz >= oldsz)
    80000de4:	fc843703          	ld	a4,-56(s0)
    80000de8:	fd043783          	ld	a5,-48(s0)
    80000dec:	00f76563          	bltu	a4,a5,80000df6 <uvmdealloc+0x26>
    return oldsz;
    80000df0:	fd043783          	ld	a5,-48(s0)
    80000df4:	a885                	j	80000e64 <uvmdealloc+0x94>

  if(PGROUNDUP(newsz) < PGROUNDUP(oldsz)){
    80000df6:	fc843703          	ld	a4,-56(s0)
    80000dfa:	6785                	lui	a5,0x1
    80000dfc:	17fd                	addi	a5,a5,-1 # fff <_entry-0x7ffff001>
    80000dfe:	973e                	add	a4,a4,a5
    80000e00:	77fd                	lui	a5,0xfffff
    80000e02:	8f7d                	and	a4,a4,a5
    80000e04:	fd043683          	ld	a3,-48(s0)
    80000e08:	6785                	lui	a5,0x1
    80000e0a:	17fd                	addi	a5,a5,-1 # fff <_entry-0x7ffff001>
    80000e0c:	96be                	add	a3,a3,a5
    80000e0e:	77fd                	lui	a5,0xfffff
    80000e10:	8ff5                	and	a5,a5,a3
    80000e12:	04f77763          	bgeu	a4,a5,80000e60 <uvmdealloc+0x90>
    int npages = (PGROUNDUP(oldsz) - PGROUNDUP(newsz)) / PGSIZE;
    80000e16:	fd043703          	ld	a4,-48(s0)
    80000e1a:	6785                	lui	a5,0x1
    80000e1c:	17fd                	addi	a5,a5,-1 # fff <_entry-0x7ffff001>
    80000e1e:	973e                	add	a4,a4,a5
    80000e20:	77fd                	lui	a5,0xfffff
    80000e22:	8f7d                	and	a4,a4,a5
    80000e24:	fc843683          	ld	a3,-56(s0)
    80000e28:	6785                	lui	a5,0x1
    80000e2a:	17fd                	addi	a5,a5,-1 # fff <_entry-0x7ffff001>
    80000e2c:	96be                	add	a3,a3,a5
    80000e2e:	77fd                	lui	a5,0xfffff
    80000e30:	8ff5                	and	a5,a5,a3
    80000e32:	40f707b3          	sub	a5,a4,a5
    80000e36:	83b1                	srli	a5,a5,0xc
    80000e38:	fef42623          	sw	a5,-20(s0)
    uvmunmap(pagetable, PGROUNDUP(newsz), npages, 1);
    80000e3c:	fc843703          	ld	a4,-56(s0)
    80000e40:	6785                	lui	a5,0x1
    80000e42:	17fd                	addi	a5,a5,-1 # fff <_entry-0x7ffff001>
    80000e44:	973e                	add	a4,a4,a5
    80000e46:	77fd                	lui	a5,0xfffff
    80000e48:	8ff9                	and	a5,a5,a4
    80000e4a:	fec42703          	lw	a4,-20(s0)
    80000e4e:	4685                	li	a3,1
    80000e50:	863a                	mv	a2,a4
    80000e52:	85be                	mv	a1,a5
    80000e54:	fd843503          	ld	a0,-40(s0)
    80000e58:	00000097          	auipc	ra,0x0
    80000e5c:	cc2080e7          	jalr	-830(ra) # 80000b1a <uvmunmap>
  }

  return newsz;
    80000e60:	fc843783          	ld	a5,-56(s0)
}
    80000e64:	853e                	mv	a0,a5
    80000e66:	70e2                	ld	ra,56(sp)
    80000e68:	7442                	ld	s0,48(sp)
    80000e6a:	6121                	addi	sp,sp,64
    80000e6c:	8082                	ret

0000000080000e6e <freewalk>:

// Recursively free page-table pages.
// All leaf mappings must already have been removed.
void
freewalk(pagetable_t pagetable)
{
    80000e6e:	7139                	addi	sp,sp,-64
    80000e70:	fc06                	sd	ra,56(sp)
    80000e72:	f822                	sd	s0,48(sp)
    80000e74:	0080                	addi	s0,sp,64
    80000e76:	fca43423          	sd	a0,-56(s0)
  // there are 2^9 = 512 PTEs in a page table.
  for(int i = 0; i < 512; i++){
    80000e7a:	fe042623          	sw	zero,-20(s0)
    80000e7e:	a88d                	j	80000ef0 <freewalk+0x82>
    pte_t pte = pagetable[i];
    80000e80:	fec42783          	lw	a5,-20(s0)
    80000e84:	078e                	slli	a5,a5,0x3
    80000e86:	fc843703          	ld	a4,-56(s0)
    80000e8a:	97ba                	add	a5,a5,a4
    80000e8c:	639c                	ld	a5,0(a5)
    80000e8e:	fef43023          	sd	a5,-32(s0)
    if((pte & PTE_V) && (pte & (PTE_R|PTE_W|PTE_X)) == 0){
    80000e92:	fe043783          	ld	a5,-32(s0)
    80000e96:	8b85                	andi	a5,a5,1
    80000e98:	cb9d                	beqz	a5,80000ece <freewalk+0x60>
    80000e9a:	fe043783          	ld	a5,-32(s0)
    80000e9e:	8bb9                	andi	a5,a5,14
    80000ea0:	e79d                	bnez	a5,80000ece <freewalk+0x60>
      // this PTE points to a lower-level page table.
      uint64 child = PTE2PA(pte);
    80000ea2:	fe043783          	ld	a5,-32(s0)
    80000ea6:	83a9                	srli	a5,a5,0xa
    80000ea8:	07b2                	slli	a5,a5,0xc
    80000eaa:	fcf43c23          	sd	a5,-40(s0)
      freewalk((pagetable_t)child);
    80000eae:	fd843783          	ld	a5,-40(s0)
    80000eb2:	853e                	mv	a0,a5
    80000eb4:	00000097          	auipc	ra,0x0
    80000eb8:	fba080e7          	jalr	-70(ra) # 80000e6e <freewalk>
      pagetable[i] = 0;
    80000ebc:	fec42783          	lw	a5,-20(s0)
    80000ec0:	078e                	slli	a5,a5,0x3
    80000ec2:	fc843703          	ld	a4,-56(s0)
    80000ec6:	97ba                	add	a5,a5,a4
    80000ec8:	0007b023          	sd	zero,0(a5) # fffffffffffff000 <end+0xffffffff7ffd9f10>
    if((pte & PTE_V) && (pte & (PTE_R|PTE_W|PTE_X)) == 0){
    80000ecc:	a829                	j	80000ee6 <freewalk+0x78>
    } else if(pte & PTE_V){
    80000ece:	fe043783          	ld	a5,-32(s0)
    80000ed2:	8b85                	andi	a5,a5,1
    80000ed4:	cb89                	beqz	a5,80000ee6 <freewalk+0x78>
      panic("freewalk: leaf");
    80000ed6:	0000a517          	auipc	a0,0xa
    80000eda:	21a50513          	addi	a0,a0,538 # 8000b0f0 <etext+0xf0>
    80000ede:	00008097          	auipc	ra,0x8
    80000ee2:	058080e7          	jalr	88(ra) # 80008f36 <panic>
  for(int i = 0; i < 512; i++){
    80000ee6:	fec42783          	lw	a5,-20(s0)
    80000eea:	2785                	addiw	a5,a5,1
    80000eec:	fef42623          	sw	a5,-20(s0)
    80000ef0:	fec42783          	lw	a5,-20(s0)
    80000ef4:	0007871b          	sext.w	a4,a5
    80000ef8:	1ff00793          	li	a5,511
    80000efc:	f8e7d2e3          	bge	a5,a4,80000e80 <freewalk+0x12>
    }
  }
  kfree((void*)pagetable);
    80000f00:	fc843503          	ld	a0,-56(s0)
    80000f04:	fffff097          	auipc	ra,0xfffff
    80000f08:	1b0080e7          	jalr	432(ra) # 800000b4 <kfree>
}
    80000f0c:	0001                	nop
    80000f0e:	70e2                	ld	ra,56(sp)
    80000f10:	7442                	ld	s0,48(sp)
    80000f12:	6121                	addi	sp,sp,64
    80000f14:	8082                	ret

0000000080000f16 <uvmfree>:

// Free user memory pages,
// then free page-table pages.
void
uvmfree(pagetable_t pagetable, uint64 sz)
{
    80000f16:	1101                	addi	sp,sp,-32
    80000f18:	ec06                	sd	ra,24(sp)
    80000f1a:	e822                	sd	s0,16(sp)
    80000f1c:	1000                	addi	s0,sp,32
    80000f1e:	fea43423          	sd	a0,-24(s0)
    80000f22:	feb43023          	sd	a1,-32(s0)
  if(sz > 0)
    80000f26:	fe043783          	ld	a5,-32(s0)
    80000f2a:	c385                	beqz	a5,80000f4a <uvmfree+0x34>
    uvmunmap(pagetable, 0, PGROUNDUP(sz)/PGSIZE, 1);
    80000f2c:	fe043703          	ld	a4,-32(s0)
    80000f30:	6785                	lui	a5,0x1
    80000f32:	17fd                	addi	a5,a5,-1 # fff <_entry-0x7ffff001>
    80000f34:	97ba                	add	a5,a5,a4
    80000f36:	83b1                	srli	a5,a5,0xc
    80000f38:	4685                	li	a3,1
    80000f3a:	863e                	mv	a2,a5
    80000f3c:	4581                	li	a1,0
    80000f3e:	fe843503          	ld	a0,-24(s0)
    80000f42:	00000097          	auipc	ra,0x0
    80000f46:	bd8080e7          	jalr	-1064(ra) # 80000b1a <uvmunmap>
  freewalk(pagetable);
    80000f4a:	fe843503          	ld	a0,-24(s0)
    80000f4e:	00000097          	auipc	ra,0x0
    80000f52:	f20080e7          	jalr	-224(ra) # 80000e6e <freewalk>
}
    80000f56:	0001                	nop
    80000f58:	60e2                	ld	ra,24(sp)
    80000f5a:	6442                	ld	s0,16(sp)
    80000f5c:	6105                	addi	sp,sp,32
    80000f5e:	8082                	ret

0000000080000f60 <uvmcopy>:
// physical memory.
// returns 0 on success, -1 on failure.
// frees any allocated pages on failure.
int
uvmcopy(pagetable_t old, pagetable_t new, uint64 sz)
{
    80000f60:	711d                	addi	sp,sp,-96
    80000f62:	ec86                	sd	ra,88(sp)
    80000f64:	e8a2                	sd	s0,80(sp)
    80000f66:	1080                	addi	s0,sp,96
    80000f68:	faa43c23          	sd	a0,-72(s0)
    80000f6c:	fab43823          	sd	a1,-80(s0)
    80000f70:	fac43423          	sd	a2,-88(s0)
  pte_t *pte;
  uint64 pa, i;
  uint flags;
  char *mem;

  for(i = 0; i < sz; i += PGSIZE){
    80000f74:	fe043423          	sd	zero,-24(s0)
    80000f78:	a0d9                	j	8000103e <uvmcopy+0xde>
    if((pte = walk(old, i, 0)) == 0)
    80000f7a:	4601                	li	a2,0
    80000f7c:	fe843583          	ld	a1,-24(s0)
    80000f80:	fb843503          	ld	a0,-72(s0)
    80000f84:	00000097          	auipc	ra,0x0
    80000f88:	8f4080e7          	jalr	-1804(ra) # 80000878 <walk>
    80000f8c:	fea43023          	sd	a0,-32(s0)
    80000f90:	fe043783          	ld	a5,-32(s0)
    80000f94:	eb89                	bnez	a5,80000fa6 <uvmcopy+0x46>
      panic("uvmcopy: pte should exist");
    80000f96:	0000a517          	auipc	a0,0xa
    80000f9a:	16a50513          	addi	a0,a0,362 # 8000b100 <etext+0x100>
    80000f9e:	00008097          	auipc	ra,0x8
    80000fa2:	f98080e7          	jalr	-104(ra) # 80008f36 <panic>
    if((*pte & PTE_V) == 0)
    80000fa6:	fe043783          	ld	a5,-32(s0)
    80000faa:	639c                	ld	a5,0(a5)
    80000fac:	8b85                	andi	a5,a5,1
    80000fae:	eb89                	bnez	a5,80000fc0 <uvmcopy+0x60>
      panic("uvmcopy: page not present");
    80000fb0:	0000a517          	auipc	a0,0xa
    80000fb4:	17050513          	addi	a0,a0,368 # 8000b120 <etext+0x120>
    80000fb8:	00008097          	auipc	ra,0x8
    80000fbc:	f7e080e7          	jalr	-130(ra) # 80008f36 <panic>
    pa = PTE2PA(*pte);
    80000fc0:	fe043783          	ld	a5,-32(s0)
    80000fc4:	639c                	ld	a5,0(a5)
    80000fc6:	83a9                	srli	a5,a5,0xa
    80000fc8:	07b2                	slli	a5,a5,0xc
    80000fca:	fcf43c23          	sd	a5,-40(s0)
    flags = PTE_FLAGS(*pte);
    80000fce:	fe043783          	ld	a5,-32(s0)
    80000fd2:	639c                	ld	a5,0(a5)
    80000fd4:	2781                	sext.w	a5,a5
    80000fd6:	3ff7f793          	andi	a5,a5,1023
    80000fda:	fcf42a23          	sw	a5,-44(s0)
    if((mem = kalloc()) == 0)
    80000fde:	fffff097          	auipc	ra,0xfffff
    80000fe2:	17a080e7          	jalr	378(ra) # 80000158 <kalloc>
    80000fe6:	fca43423          	sd	a0,-56(s0)
    80000fea:	fc843783          	ld	a5,-56(s0)
    80000fee:	c3a5                	beqz	a5,8000104e <uvmcopy+0xee>
      goto err;
    memmove(mem, (char*)pa, PGSIZE);
    80000ff0:	fd843783          	ld	a5,-40(s0)
    80000ff4:	6605                	lui	a2,0x1
    80000ff6:	85be                	mv	a1,a5
    80000ff8:	fc843503          	ld	a0,-56(s0)
    80000ffc:	fffff097          	auipc	ra,0xfffff
    80001000:	2f4080e7          	jalr	756(ra) # 800002f0 <memmove>
    if(mappages(new, i, PGSIZE, (uint64)mem, flags) != 0){
    80001004:	fc843783          	ld	a5,-56(s0)
    80001008:	fd442703          	lw	a4,-44(s0)
    8000100c:	86be                	mv	a3,a5
    8000100e:	6605                	lui	a2,0x1
    80001010:	fe843583          	ld	a1,-24(s0)
    80001014:	fb043503          	ld	a0,-80(s0)
    80001018:	00000097          	auipc	ra,0x0
    8000101c:	a24080e7          	jalr	-1500(ra) # 80000a3c <mappages>
    80001020:	87aa                	mv	a5,a0
    80001022:	cb81                	beqz	a5,80001032 <uvmcopy+0xd2>
      kfree(mem);
    80001024:	fc843503          	ld	a0,-56(s0)
    80001028:	fffff097          	auipc	ra,0xfffff
    8000102c:	08c080e7          	jalr	140(ra) # 800000b4 <kfree>
      goto err;
    80001030:	a005                	j	80001050 <uvmcopy+0xf0>
  for(i = 0; i < sz; i += PGSIZE){
    80001032:	fe843703          	ld	a4,-24(s0)
    80001036:	6785                	lui	a5,0x1
    80001038:	97ba                	add	a5,a5,a4
    8000103a:	fef43423          	sd	a5,-24(s0)
    8000103e:	fe843703          	ld	a4,-24(s0)
    80001042:	fa843783          	ld	a5,-88(s0)
    80001046:	f2f76ae3          	bltu	a4,a5,80000f7a <uvmcopy+0x1a>
    }
  }
  return 0;
    8000104a:	4781                	li	a5,0
    8000104c:	a839                	j	8000106a <uvmcopy+0x10a>
      goto err;
    8000104e:	0001                	nop

 err:
  uvmunmap(new, 0, i / PGSIZE, 1);
    80001050:	fe843783          	ld	a5,-24(s0)
    80001054:	83b1                	srli	a5,a5,0xc
    80001056:	4685                	li	a3,1
    80001058:	863e                	mv	a2,a5
    8000105a:	4581                	li	a1,0
    8000105c:	fb043503          	ld	a0,-80(s0)
    80001060:	00000097          	auipc	ra,0x0
    80001064:	aba080e7          	jalr	-1350(ra) # 80000b1a <uvmunmap>
  return -1;
    80001068:	57fd                	li	a5,-1
}
    8000106a:	853e                	mv	a0,a5
    8000106c:	60e6                	ld	ra,88(sp)
    8000106e:	6446                	ld	s0,80(sp)
    80001070:	6125                	addi	sp,sp,96
    80001072:	8082                	ret

0000000080001074 <uvmclear>:

// mark a PTE invalid for user access.
// used by exec for the user stack guard page.
void
uvmclear(pagetable_t pagetable, uint64 va)
{
    80001074:	7179                	addi	sp,sp,-48
    80001076:	f406                	sd	ra,40(sp)
    80001078:	f022                	sd	s0,32(sp)
    8000107a:	1800                	addi	s0,sp,48
    8000107c:	fca43c23          	sd	a0,-40(s0)
    80001080:	fcb43823          	sd	a1,-48(s0)
  pte_t *pte;
  
  pte = walk(pagetable, va, 0);
    80001084:	4601                	li	a2,0
    80001086:	fd043583          	ld	a1,-48(s0)
    8000108a:	fd843503          	ld	a0,-40(s0)
    8000108e:	fffff097          	auipc	ra,0xfffff
    80001092:	7ea080e7          	jalr	2026(ra) # 80000878 <walk>
    80001096:	fea43423          	sd	a0,-24(s0)
  if(pte == 0)
    8000109a:	fe843783          	ld	a5,-24(s0)
    8000109e:	eb89                	bnez	a5,800010b0 <uvmclear+0x3c>
    panic("uvmclear");
    800010a0:	0000a517          	auipc	a0,0xa
    800010a4:	0a050513          	addi	a0,a0,160 # 8000b140 <etext+0x140>
    800010a8:	00008097          	auipc	ra,0x8
    800010ac:	e8e080e7          	jalr	-370(ra) # 80008f36 <panic>
  *pte &= ~PTE_U;
    800010b0:	fe843783          	ld	a5,-24(s0)
    800010b4:	639c                	ld	a5,0(a5)
    800010b6:	fef7f713          	andi	a4,a5,-17
    800010ba:	fe843783          	ld	a5,-24(s0)
    800010be:	e398                	sd	a4,0(a5)
}
    800010c0:	0001                	nop
    800010c2:	70a2                	ld	ra,40(sp)
    800010c4:	7402                	ld	s0,32(sp)
    800010c6:	6145                	addi	sp,sp,48
    800010c8:	8082                	ret

00000000800010ca <copyout>:
// Copy from kernel to user.
// Copy len bytes from src to virtual address dstva in a given page table.
// Return 0 on success, -1 on error.
int
copyout(pagetable_t pagetable, uint64 dstva, char *src, uint64 len)
{
    800010ca:	715d                	addi	sp,sp,-80
    800010cc:	e486                	sd	ra,72(sp)
    800010ce:	e0a2                	sd	s0,64(sp)
    800010d0:	0880                	addi	s0,sp,80
    800010d2:	fca43423          	sd	a0,-56(s0)
    800010d6:	fcb43023          	sd	a1,-64(s0)
    800010da:	fac43c23          	sd	a2,-72(s0)
    800010de:	fad43823          	sd	a3,-80(s0)
  uint64 n, va0, pa0;

  while(len > 0){
    800010e2:	a055                	j	80001186 <copyout+0xbc>
    va0 = PGROUNDDOWN(dstva);
    800010e4:	fc043703          	ld	a4,-64(s0)
    800010e8:	77fd                	lui	a5,0xfffff
    800010ea:	8ff9                	and	a5,a5,a4
    800010ec:	fef43023          	sd	a5,-32(s0)
    pa0 = walkaddr(pagetable, va0);
    800010f0:	fe043583          	ld	a1,-32(s0)
    800010f4:	fc843503          	ld	a0,-56(s0)
    800010f8:	00000097          	auipc	ra,0x0
    800010fc:	872080e7          	jalr	-1934(ra) # 8000096a <walkaddr>
    80001100:	fca43c23          	sd	a0,-40(s0)
    if(pa0 == 0)
    80001104:	fd843783          	ld	a5,-40(s0)
    80001108:	e399                	bnez	a5,8000110e <copyout+0x44>
      return -1;
    8000110a:	57fd                	li	a5,-1
    8000110c:	a049                	j	8000118e <copyout+0xc4>
    n = PGSIZE - (dstva - va0);
    8000110e:	fe043703          	ld	a4,-32(s0)
    80001112:	fc043783          	ld	a5,-64(s0)
    80001116:	8f1d                	sub	a4,a4,a5
    80001118:	6785                	lui	a5,0x1
    8000111a:	97ba                	add	a5,a5,a4
    8000111c:	fef43423          	sd	a5,-24(s0)
    if(n > len)
    80001120:	fe843703          	ld	a4,-24(s0)
    80001124:	fb043783          	ld	a5,-80(s0)
    80001128:	00e7f663          	bgeu	a5,a4,80001134 <copyout+0x6a>
      n = len;
    8000112c:	fb043783          	ld	a5,-80(s0)
    80001130:	fef43423          	sd	a5,-24(s0)
    memmove((void *)(pa0 + (dstva - va0)), src, n);
    80001134:	fc043703          	ld	a4,-64(s0)
    80001138:	fe043783          	ld	a5,-32(s0)
    8000113c:	8f1d                	sub	a4,a4,a5
    8000113e:	fd843783          	ld	a5,-40(s0)
    80001142:	97ba                	add	a5,a5,a4
    80001144:	873e                	mv	a4,a5
    80001146:	fe843783          	ld	a5,-24(s0)
    8000114a:	2781                	sext.w	a5,a5
    8000114c:	863e                	mv	a2,a5
    8000114e:	fb843583          	ld	a1,-72(s0)
    80001152:	853a                	mv	a0,a4
    80001154:	fffff097          	auipc	ra,0xfffff
    80001158:	19c080e7          	jalr	412(ra) # 800002f0 <memmove>

    len -= n;
    8000115c:	fb043703          	ld	a4,-80(s0)
    80001160:	fe843783          	ld	a5,-24(s0)
    80001164:	40f707b3          	sub	a5,a4,a5
    80001168:	faf43823          	sd	a5,-80(s0)
    src += n;
    8000116c:	fb843703          	ld	a4,-72(s0)
    80001170:	fe843783          	ld	a5,-24(s0)
    80001174:	97ba                	add	a5,a5,a4
    80001176:	faf43c23          	sd	a5,-72(s0)
    dstva = va0 + PGSIZE;
    8000117a:	fe043703          	ld	a4,-32(s0)
    8000117e:	6785                	lui	a5,0x1
    80001180:	97ba                	add	a5,a5,a4
    80001182:	fcf43023          	sd	a5,-64(s0)
  while(len > 0){
    80001186:	fb043783          	ld	a5,-80(s0)
    8000118a:	ffa9                	bnez	a5,800010e4 <copyout+0x1a>
  }
  return 0;
    8000118c:	4781                	li	a5,0
}
    8000118e:	853e                	mv	a0,a5
    80001190:	60a6                	ld	ra,72(sp)
    80001192:	6406                	ld	s0,64(sp)
    80001194:	6161                	addi	sp,sp,80
    80001196:	8082                	ret

0000000080001198 <copyin>:
// Copy from user to kernel.
// Copy len bytes to dst from virtual address srcva in a given page table.
// Return 0 on success, -1 on error.
int
copyin(pagetable_t pagetable, char *dst, uint64 srcva, uint64 len)
{
    80001198:	715d                	addi	sp,sp,-80
    8000119a:	e486                	sd	ra,72(sp)
    8000119c:	e0a2                	sd	s0,64(sp)
    8000119e:	0880                	addi	s0,sp,80
    800011a0:	fca43423          	sd	a0,-56(s0)
    800011a4:	fcb43023          	sd	a1,-64(s0)
    800011a8:	fac43c23          	sd	a2,-72(s0)
    800011ac:	fad43823          	sd	a3,-80(s0)
  uint64 n, va0, pa0;

  while(len > 0){
    800011b0:	a055                	j	80001254 <copyin+0xbc>
    va0 = PGROUNDDOWN(srcva);
    800011b2:	fb843703          	ld	a4,-72(s0)
    800011b6:	77fd                	lui	a5,0xfffff
    800011b8:	8ff9                	and	a5,a5,a4
    800011ba:	fef43023          	sd	a5,-32(s0)
    pa0 = walkaddr(pagetable, va0);
    800011be:	fe043583          	ld	a1,-32(s0)
    800011c2:	fc843503          	ld	a0,-56(s0)
    800011c6:	fffff097          	auipc	ra,0xfffff
    800011ca:	7a4080e7          	jalr	1956(ra) # 8000096a <walkaddr>
    800011ce:	fca43c23          	sd	a0,-40(s0)
    if(pa0 == 0)
    800011d2:	fd843783          	ld	a5,-40(s0)
    800011d6:	e399                	bnez	a5,800011dc <copyin+0x44>
      return -1;
    800011d8:	57fd                	li	a5,-1
    800011da:	a049                	j	8000125c <copyin+0xc4>
    n = PGSIZE - (srcva - va0);
    800011dc:	fe043703          	ld	a4,-32(s0)
    800011e0:	fb843783          	ld	a5,-72(s0)
    800011e4:	8f1d                	sub	a4,a4,a5
    800011e6:	6785                	lui	a5,0x1
    800011e8:	97ba                	add	a5,a5,a4
    800011ea:	fef43423          	sd	a5,-24(s0)
    if(n > len)
    800011ee:	fe843703          	ld	a4,-24(s0)
    800011f2:	fb043783          	ld	a5,-80(s0)
    800011f6:	00e7f663          	bgeu	a5,a4,80001202 <copyin+0x6a>
      n = len;
    800011fa:	fb043783          	ld	a5,-80(s0)
    800011fe:	fef43423          	sd	a5,-24(s0)
    memmove(dst, (void *)(pa0 + (srcva - va0)), n);
    80001202:	fb843703          	ld	a4,-72(s0)
    80001206:	fe043783          	ld	a5,-32(s0)
    8000120a:	8f1d                	sub	a4,a4,a5
    8000120c:	fd843783          	ld	a5,-40(s0)
    80001210:	97ba                	add	a5,a5,a4
    80001212:	873e                	mv	a4,a5
    80001214:	fe843783          	ld	a5,-24(s0)
    80001218:	2781                	sext.w	a5,a5
    8000121a:	863e                	mv	a2,a5
    8000121c:	85ba                	mv	a1,a4
    8000121e:	fc043503          	ld	a0,-64(s0)
    80001222:	fffff097          	auipc	ra,0xfffff
    80001226:	0ce080e7          	jalr	206(ra) # 800002f0 <memmove>

    len -= n;
    8000122a:	fb043703          	ld	a4,-80(s0)
    8000122e:	fe843783          	ld	a5,-24(s0)
    80001232:	40f707b3          	sub	a5,a4,a5
    80001236:	faf43823          	sd	a5,-80(s0)
    dst += n;
    8000123a:	fc043703          	ld	a4,-64(s0)
    8000123e:	fe843783          	ld	a5,-24(s0)
    80001242:	97ba                	add	a5,a5,a4
    80001244:	fcf43023          	sd	a5,-64(s0)
    srcva = va0 + PGSIZE;
    80001248:	fe043703          	ld	a4,-32(s0)
    8000124c:	6785                	lui	a5,0x1
    8000124e:	97ba                	add	a5,a5,a4
    80001250:	faf43c23          	sd	a5,-72(s0)
  while(len > 0){
    80001254:	fb043783          	ld	a5,-80(s0)
    80001258:	ffa9                	bnez	a5,800011b2 <copyin+0x1a>
  }
  return 0;
    8000125a:	4781                	li	a5,0
}
    8000125c:	853e                	mv	a0,a5
    8000125e:	60a6                	ld	ra,72(sp)
    80001260:	6406                	ld	s0,64(sp)
    80001262:	6161                	addi	sp,sp,80
    80001264:	8082                	ret

0000000080001266 <copyinstr>:
// Copy bytes to dst from virtual address srcva in a given page table,
// until a '\0', or max.
// Return 0 on success, -1 on error.
int
copyinstr(pagetable_t pagetable, char *dst, uint64 srcva, uint64 max)
{
    80001266:	711d                	addi	sp,sp,-96
    80001268:	ec86                	sd	ra,88(sp)
    8000126a:	e8a2                	sd	s0,80(sp)
    8000126c:	1080                	addi	s0,sp,96
    8000126e:	faa43c23          	sd	a0,-72(s0)
    80001272:	fab43823          	sd	a1,-80(s0)
    80001276:	fac43423          	sd	a2,-88(s0)
    8000127a:	fad43023          	sd	a3,-96(s0)
  uint64 n, va0, pa0;
  int got_null = 0;
    8000127e:	fe042223          	sw	zero,-28(s0)

  while(got_null == 0 && max > 0){
    80001282:	a0f1                	j	8000134e <copyinstr+0xe8>
    va0 = PGROUNDDOWN(srcva);
    80001284:	fa843703          	ld	a4,-88(s0)
    80001288:	77fd                	lui	a5,0xfffff
    8000128a:	8ff9                	and	a5,a5,a4
    8000128c:	fcf43823          	sd	a5,-48(s0)
    pa0 = walkaddr(pagetable, va0);
    80001290:	fd043583          	ld	a1,-48(s0)
    80001294:	fb843503          	ld	a0,-72(s0)
    80001298:	fffff097          	auipc	ra,0xfffff
    8000129c:	6d2080e7          	jalr	1746(ra) # 8000096a <walkaddr>
    800012a0:	fca43423          	sd	a0,-56(s0)
    if(pa0 == 0)
    800012a4:	fc843783          	ld	a5,-56(s0)
    800012a8:	e399                	bnez	a5,800012ae <copyinstr+0x48>
      return -1;
    800012aa:	57fd                	li	a5,-1
    800012ac:	a87d                	j	8000136a <copyinstr+0x104>
    n = PGSIZE - (srcva - va0);
    800012ae:	fd043703          	ld	a4,-48(s0)
    800012b2:	fa843783          	ld	a5,-88(s0)
    800012b6:	8f1d                	sub	a4,a4,a5
    800012b8:	6785                	lui	a5,0x1
    800012ba:	97ba                	add	a5,a5,a4
    800012bc:	fef43423          	sd	a5,-24(s0)
    if(n > max)
    800012c0:	fe843703          	ld	a4,-24(s0)
    800012c4:	fa043783          	ld	a5,-96(s0)
    800012c8:	00e7f663          	bgeu	a5,a4,800012d4 <copyinstr+0x6e>
      n = max;
    800012cc:	fa043783          	ld	a5,-96(s0)
    800012d0:	fef43423          	sd	a5,-24(s0)

    char *p = (char *) (pa0 + (srcva - va0));
    800012d4:	fa843703          	ld	a4,-88(s0)
    800012d8:	fd043783          	ld	a5,-48(s0)
    800012dc:	8f1d                	sub	a4,a4,a5
    800012de:	fc843783          	ld	a5,-56(s0)
    800012e2:	97ba                	add	a5,a5,a4
    800012e4:	fcf43c23          	sd	a5,-40(s0)
    while(n > 0){
    800012e8:	a891                	j	8000133c <copyinstr+0xd6>
      if(*p == '\0'){
    800012ea:	fd843783          	ld	a5,-40(s0)
    800012ee:	0007c783          	lbu	a5,0(a5) # 1000 <_entry-0x7ffff000>
    800012f2:	eb89                	bnez	a5,80001304 <copyinstr+0x9e>
        *dst = '\0';
    800012f4:	fb043783          	ld	a5,-80(s0)
    800012f8:	00078023          	sb	zero,0(a5)
        got_null = 1;
    800012fc:	4785                	li	a5,1
    800012fe:	fef42223          	sw	a5,-28(s0)
        break;
    80001302:	a081                	j	80001342 <copyinstr+0xdc>
      } else {
        *dst = *p;
    80001304:	fd843783          	ld	a5,-40(s0)
    80001308:	0007c703          	lbu	a4,0(a5)
    8000130c:	fb043783          	ld	a5,-80(s0)
    80001310:	00e78023          	sb	a4,0(a5)
      }
      --n;
    80001314:	fe843783          	ld	a5,-24(s0)
    80001318:	17fd                	addi	a5,a5,-1
    8000131a:	fef43423          	sd	a5,-24(s0)
      --max;
    8000131e:	fa043783          	ld	a5,-96(s0)
    80001322:	17fd                	addi	a5,a5,-1
    80001324:	faf43023          	sd	a5,-96(s0)
      p++;
    80001328:	fd843783          	ld	a5,-40(s0)
    8000132c:	0785                	addi	a5,a5,1
    8000132e:	fcf43c23          	sd	a5,-40(s0)
      dst++;
    80001332:	fb043783          	ld	a5,-80(s0)
    80001336:	0785                	addi	a5,a5,1
    80001338:	faf43823          	sd	a5,-80(s0)
    while(n > 0){
    8000133c:	fe843783          	ld	a5,-24(s0)
    80001340:	f7cd                	bnez	a5,800012ea <copyinstr+0x84>
    }

    srcva = va0 + PGSIZE;
    80001342:	fd043703          	ld	a4,-48(s0)
    80001346:	6785                	lui	a5,0x1
    80001348:	97ba                	add	a5,a5,a4
    8000134a:	faf43423          	sd	a5,-88(s0)
  while(got_null == 0 && max > 0){
    8000134e:	fe442783          	lw	a5,-28(s0)
    80001352:	2781                	sext.w	a5,a5
    80001354:	e781                	bnez	a5,8000135c <copyinstr+0xf6>
    80001356:	fa043783          	ld	a5,-96(s0)
    8000135a:	f78d                	bnez	a5,80001284 <copyinstr+0x1e>
  }
  if(got_null){
    8000135c:	fe442783          	lw	a5,-28(s0)
    80001360:	2781                	sext.w	a5,a5
    80001362:	c399                	beqz	a5,80001368 <copyinstr+0x102>
    return 0;
    80001364:	4781                	li	a5,0
    80001366:	a011                	j	8000136a <copyinstr+0x104>
  } else {
    return -1;
    80001368:	57fd                	li	a5,-1
  }
}
    8000136a:	853e                	mv	a0,a5
    8000136c:	60e6                	ld	ra,88(sp)
    8000136e:	6446                	ld	s0,80(sp)
    80001370:	6125                	addi	sp,sp,96
    80001372:	8082                	ret

0000000080001374 <r_sstatus>:
{
    80001374:	1101                	addi	sp,sp,-32
    80001376:	ec22                	sd	s0,24(sp)
    80001378:	1000                	addi	s0,sp,32
  asm volatile("csrr %0, sstatus" : "=r" (x) );
    8000137a:	100027f3          	csrr	a5,sstatus
    8000137e:	fef43423          	sd	a5,-24(s0)
  return x;
    80001382:	fe843783          	ld	a5,-24(s0)
}
    80001386:	853e                	mv	a0,a5
    80001388:	6462                	ld	s0,24(sp)
    8000138a:	6105                	addi	sp,sp,32
    8000138c:	8082                	ret

000000008000138e <w_sstatus>:
{
    8000138e:	1101                	addi	sp,sp,-32
    80001390:	ec22                	sd	s0,24(sp)
    80001392:	1000                	addi	s0,sp,32
    80001394:	fea43423          	sd	a0,-24(s0)
  asm volatile("csrw sstatus, %0" : : "r" (x));
    80001398:	fe843783          	ld	a5,-24(s0)
    8000139c:	10079073          	csrw	sstatus,a5
}
    800013a0:	0001                	nop
    800013a2:	6462                	ld	s0,24(sp)
    800013a4:	6105                	addi	sp,sp,32
    800013a6:	8082                	ret

00000000800013a8 <intr_on>:
{
    800013a8:	1141                	addi	sp,sp,-16
    800013aa:	e406                	sd	ra,8(sp)
    800013ac:	e022                	sd	s0,0(sp)
    800013ae:	0800                	addi	s0,sp,16
  w_sstatus(r_sstatus() | SSTATUS_SIE);
    800013b0:	00000097          	auipc	ra,0x0
    800013b4:	fc4080e7          	jalr	-60(ra) # 80001374 <r_sstatus>
    800013b8:	87aa                	mv	a5,a0
    800013ba:	0027e793          	ori	a5,a5,2
    800013be:	853e                	mv	a0,a5
    800013c0:	00000097          	auipc	ra,0x0
    800013c4:	fce080e7          	jalr	-50(ra) # 8000138e <w_sstatus>
}
    800013c8:	0001                	nop
    800013ca:	60a2                	ld	ra,8(sp)
    800013cc:	6402                	ld	s0,0(sp)
    800013ce:	0141                	addi	sp,sp,16
    800013d0:	8082                	ret

00000000800013d2 <intr_get>:
{
    800013d2:	1101                	addi	sp,sp,-32
    800013d4:	ec06                	sd	ra,24(sp)
    800013d6:	e822                	sd	s0,16(sp)
    800013d8:	1000                	addi	s0,sp,32
  uint64 x = r_sstatus();
    800013da:	00000097          	auipc	ra,0x0
    800013de:	f9a080e7          	jalr	-102(ra) # 80001374 <r_sstatus>
    800013e2:	fea43423          	sd	a0,-24(s0)
  return (x & SSTATUS_SIE) != 0;
    800013e6:	fe843783          	ld	a5,-24(s0)
    800013ea:	8b89                	andi	a5,a5,2
    800013ec:	00f037b3          	snez	a5,a5
    800013f0:	0ff7f793          	zext.b	a5,a5
    800013f4:	2781                	sext.w	a5,a5
}
    800013f6:	853e                	mv	a0,a5
    800013f8:	60e2                	ld	ra,24(sp)
    800013fa:	6442                	ld	s0,16(sp)
    800013fc:	6105                	addi	sp,sp,32
    800013fe:	8082                	ret

0000000080001400 <r_tp>:
{
    80001400:	1101                	addi	sp,sp,-32
    80001402:	ec22                	sd	s0,24(sp)
    80001404:	1000                	addi	s0,sp,32
  asm volatile("mv %0, tp" : "=r" (x) );
    80001406:	8792                	mv	a5,tp
    80001408:	fef43423          	sd	a5,-24(s0)
  return x;
    8000140c:	fe843783          	ld	a5,-24(s0)
}
    80001410:	853e                	mv	a0,a5
    80001412:	6462                	ld	s0,24(sp)
    80001414:	6105                	addi	sp,sp,32
    80001416:	8082                	ret

0000000080001418 <proc_mapstacks>:
// Allocate a page for each process's kernel stack.
// Map it high in memory, followed by an invalid
// guard page.
void
proc_mapstacks(pagetable_t kpgtbl)
{
    80001418:	7139                	addi	sp,sp,-64
    8000141a:	fc06                	sd	ra,56(sp)
    8000141c:	f822                	sd	s0,48(sp)
    8000141e:	0080                	addi	s0,sp,64
    80001420:	fca43423          	sd	a0,-56(s0)
  struct proc *p;
  
  for(p = proc; p < &proc[NPROC]; p++) {
    80001424:	0000b797          	auipc	a5,0xb
    80001428:	a7478793          	addi	a5,a5,-1420 # 8000be98 <proc>
    8000142c:	fef43423          	sd	a5,-24(s0)
    80001430:	a061                	j	800014b8 <proc_mapstacks+0xa0>
    char *pa = kalloc();
    80001432:	fffff097          	auipc	ra,0xfffff
    80001436:	d26080e7          	jalr	-730(ra) # 80000158 <kalloc>
    8000143a:	fea43023          	sd	a0,-32(s0)
    if(pa == 0)
    8000143e:	fe043783          	ld	a5,-32(s0)
    80001442:	eb89                	bnez	a5,80001454 <proc_mapstacks+0x3c>
      panic("kalloc");
    80001444:	0000a517          	auipc	a0,0xa
    80001448:	d0c50513          	addi	a0,a0,-756 # 8000b150 <etext+0x150>
    8000144c:	00008097          	auipc	ra,0x8
    80001450:	aea080e7          	jalr	-1302(ra) # 80008f36 <panic>
    uint64 va = KSTACK((int) (p - proc));
    80001454:	fe843703          	ld	a4,-24(s0)
    80001458:	0000b797          	auipc	a5,0xb
    8000145c:	a4078793          	addi	a5,a5,-1472 # 8000be98 <proc>
    80001460:	40f707b3          	sub	a5,a4,a5
    80001464:	4047d713          	srai	a4,a5,0x4
    80001468:	0000a797          	auipc	a5,0xa
    8000146c:	de078793          	addi	a5,a5,-544 # 8000b248 <etext+0x248>
    80001470:	639c                	ld	a5,0(a5)
    80001472:	02f707b3          	mul	a5,a4,a5
    80001476:	2781                	sext.w	a5,a5
    80001478:	2785                	addiw	a5,a5,1
    8000147a:	2781                	sext.w	a5,a5
    8000147c:	00d7979b          	slliw	a5,a5,0xd
    80001480:	2781                	sext.w	a5,a5
    80001482:	873e                	mv	a4,a5
    80001484:	040007b7          	lui	a5,0x4000
    80001488:	17fd                	addi	a5,a5,-1 # 3ffffff <_entry-0x7c000001>
    8000148a:	07b2                	slli	a5,a5,0xc
    8000148c:	8f99                	sub	a5,a5,a4
    8000148e:	fcf43c23          	sd	a5,-40(s0)
    kvmmap(kpgtbl, va, (uint64)pa, PGSIZE, PTE_R | PTE_W);
    80001492:	fe043783          	ld	a5,-32(s0)
    80001496:	4719                	li	a4,6
    80001498:	6685                	lui	a3,0x1
    8000149a:	863e                	mv	a2,a5
    8000149c:	fd843583          	ld	a1,-40(s0)
    800014a0:	fc843503          	ld	a0,-56(s0)
    800014a4:	fffff097          	auipc	ra,0xfffff
    800014a8:	53e080e7          	jalr	1342(ra) # 800009e2 <kvmmap>
  for(p = proc; p < &proc[NPROC]; p++) {
    800014ac:	fe843783          	ld	a5,-24(s0)
    800014b0:	17078793          	addi	a5,a5,368
    800014b4:	fef43423          	sd	a5,-24(s0)
    800014b8:	fe843703          	ld	a4,-24(s0)
    800014bc:	00010797          	auipc	a5,0x10
    800014c0:	5dc78793          	addi	a5,a5,1500 # 80011a98 <pid_lock>
    800014c4:	f6f767e3          	bltu	a4,a5,80001432 <proc_mapstacks+0x1a>
  }
}
    800014c8:	0001                	nop
    800014ca:	0001                	nop
    800014cc:	70e2                	ld	ra,56(sp)
    800014ce:	7442                	ld	s0,48(sp)
    800014d0:	6121                	addi	sp,sp,64
    800014d2:	8082                	ret

00000000800014d4 <procinit>:

// initialize the proc table.
void
procinit(void)
{
    800014d4:	1101                	addi	sp,sp,-32
    800014d6:	ec06                	sd	ra,24(sp)
    800014d8:	e822                	sd	s0,16(sp)
    800014da:	1000                	addi	s0,sp,32
  struct proc *p;
  
  initlock(&pid_lock, "nextpid");
    800014dc:	0000a597          	auipc	a1,0xa
    800014e0:	c7c58593          	addi	a1,a1,-900 # 8000b158 <etext+0x158>
    800014e4:	00010517          	auipc	a0,0x10
    800014e8:	5b450513          	addi	a0,a0,1460 # 80011a98 <pid_lock>
    800014ec:	00008097          	auipc	ra,0x8
    800014f0:	e62080e7          	jalr	-414(ra) # 8000934e <initlock>
  initlock(&wait_lock, "wait_lock");
    800014f4:	0000a597          	auipc	a1,0xa
    800014f8:	c6c58593          	addi	a1,a1,-916 # 8000b160 <etext+0x160>
    800014fc:	00010517          	auipc	a0,0x10
    80001500:	5b450513          	addi	a0,a0,1460 # 80011ab0 <wait_lock>
    80001504:	00008097          	auipc	ra,0x8
    80001508:	e4a080e7          	jalr	-438(ra) # 8000934e <initlock>
  for(p = proc; p < &proc[NPROC]; p++) {
    8000150c:	0000b797          	auipc	a5,0xb
    80001510:	98c78793          	addi	a5,a5,-1652 # 8000be98 <proc>
    80001514:	fef43423          	sd	a5,-24(s0)
    80001518:	a0bd                	j	80001586 <procinit+0xb2>
      initlock(&p->lock, "proc");
    8000151a:	fe843783          	ld	a5,-24(s0)
    8000151e:	0000a597          	auipc	a1,0xa
    80001522:	c5258593          	addi	a1,a1,-942 # 8000b170 <etext+0x170>
    80001526:	853e                	mv	a0,a5
    80001528:	00008097          	auipc	ra,0x8
    8000152c:	e26080e7          	jalr	-474(ra) # 8000934e <initlock>
      p->state = UNUSED;
    80001530:	fe843783          	ld	a5,-24(s0)
    80001534:	0007ac23          	sw	zero,24(a5)
      p->kstack = KSTACK((int) (p - proc));
    80001538:	fe843703          	ld	a4,-24(s0)
    8000153c:	0000b797          	auipc	a5,0xb
    80001540:	95c78793          	addi	a5,a5,-1700 # 8000be98 <proc>
    80001544:	40f707b3          	sub	a5,a4,a5
    80001548:	4047d713          	srai	a4,a5,0x4
    8000154c:	0000a797          	auipc	a5,0xa
    80001550:	cfc78793          	addi	a5,a5,-772 # 8000b248 <etext+0x248>
    80001554:	639c                	ld	a5,0(a5)
    80001556:	02f707b3          	mul	a5,a4,a5
    8000155a:	2781                	sext.w	a5,a5
    8000155c:	2785                	addiw	a5,a5,1
    8000155e:	2781                	sext.w	a5,a5
    80001560:	00d7979b          	slliw	a5,a5,0xd
    80001564:	2781                	sext.w	a5,a5
    80001566:	873e                	mv	a4,a5
    80001568:	040007b7          	lui	a5,0x4000
    8000156c:	17fd                	addi	a5,a5,-1 # 3ffffff <_entry-0x7c000001>
    8000156e:	07b2                	slli	a5,a5,0xc
    80001570:	8f99                	sub	a5,a5,a4
    80001572:	873e                	mv	a4,a5
    80001574:	fe843783          	ld	a5,-24(s0)
    80001578:	e3b8                	sd	a4,64(a5)
  for(p = proc; p < &proc[NPROC]; p++) {
    8000157a:	fe843783          	ld	a5,-24(s0)
    8000157e:	17078793          	addi	a5,a5,368
    80001582:	fef43423          	sd	a5,-24(s0)
    80001586:	fe843703          	ld	a4,-24(s0)
    8000158a:	00010797          	auipc	a5,0x10
    8000158e:	50e78793          	addi	a5,a5,1294 # 80011a98 <pid_lock>
    80001592:	f8f764e3          	bltu	a4,a5,8000151a <procinit+0x46>
  }
}
    80001596:	0001                	nop
    80001598:	0001                	nop
    8000159a:	60e2                	ld	ra,24(sp)
    8000159c:	6442                	ld	s0,16(sp)
    8000159e:	6105                	addi	sp,sp,32
    800015a0:	8082                	ret

00000000800015a2 <cpuid>:
// Must be called with interrupts disabled,
// to prevent race with process being moved
// to a different CPU.
int
cpuid()
{
    800015a2:	1101                	addi	sp,sp,-32
    800015a4:	ec06                	sd	ra,24(sp)
    800015a6:	e822                	sd	s0,16(sp)
    800015a8:	1000                	addi	s0,sp,32
  int id = r_tp();
    800015aa:	00000097          	auipc	ra,0x0
    800015ae:	e56080e7          	jalr	-426(ra) # 80001400 <r_tp>
    800015b2:	87aa                	mv	a5,a0
    800015b4:	fef42623          	sw	a5,-20(s0)
  return id;
    800015b8:	fec42783          	lw	a5,-20(s0)
}
    800015bc:	853e                	mv	a0,a5
    800015be:	60e2                	ld	ra,24(sp)
    800015c0:	6442                	ld	s0,16(sp)
    800015c2:	6105                	addi	sp,sp,32
    800015c4:	8082                	ret

00000000800015c6 <mycpu>:

// Return this CPU's cpu struct.
// Interrupts must be disabled.
struct cpu*
mycpu(void)
{
    800015c6:	1101                	addi	sp,sp,-32
    800015c8:	ec06                	sd	ra,24(sp)
    800015ca:	e822                	sd	s0,16(sp)
    800015cc:	1000                	addi	s0,sp,32
  int id = cpuid();
    800015ce:	00000097          	auipc	ra,0x0
    800015d2:	fd4080e7          	jalr	-44(ra) # 800015a2 <cpuid>
    800015d6:	87aa                	mv	a5,a0
    800015d8:	fef42623          	sw	a5,-20(s0)
  struct cpu *c = &cpus[id];
    800015dc:	fec42783          	lw	a5,-20(s0)
    800015e0:	00779713          	slli	a4,a5,0x7
    800015e4:	0000a797          	auipc	a5,0xa
    800015e8:	4b478793          	addi	a5,a5,1204 # 8000ba98 <cpus>
    800015ec:	97ba                	add	a5,a5,a4
    800015ee:	fef43023          	sd	a5,-32(s0)
  return c;
    800015f2:	fe043783          	ld	a5,-32(s0)
}
    800015f6:	853e                	mv	a0,a5
    800015f8:	60e2                	ld	ra,24(sp)
    800015fa:	6442                	ld	s0,16(sp)
    800015fc:	6105                	addi	sp,sp,32
    800015fe:	8082                	ret

0000000080001600 <myproc>:

// Return the current struct proc *, or zero if none.
struct proc*
myproc(void)
{
    80001600:	1101                	addi	sp,sp,-32
    80001602:	ec06                	sd	ra,24(sp)
    80001604:	e822                	sd	s0,16(sp)
    80001606:	1000                	addi	s0,sp,32
  push_off();
    80001608:	00008097          	auipc	ra,0x8
    8000160c:	e74080e7          	jalr	-396(ra) # 8000947c <push_off>
  struct cpu *c = mycpu();
    80001610:	00000097          	auipc	ra,0x0
    80001614:	fb6080e7          	jalr	-74(ra) # 800015c6 <mycpu>
    80001618:	fea43423          	sd	a0,-24(s0)
  struct proc *p = c->proc;
    8000161c:	fe843783          	ld	a5,-24(s0)
    80001620:	639c                	ld	a5,0(a5)
    80001622:	fef43023          	sd	a5,-32(s0)
  pop_off();
    80001626:	00008097          	auipc	ra,0x8
    8000162a:	eae080e7          	jalr	-338(ra) # 800094d4 <pop_off>
  return p;
    8000162e:	fe043783          	ld	a5,-32(s0)
}
    80001632:	853e                	mv	a0,a5
    80001634:	60e2                	ld	ra,24(sp)
    80001636:	6442                	ld	s0,16(sp)
    80001638:	6105                	addi	sp,sp,32
    8000163a:	8082                	ret

000000008000163c <allocpid>:

int
allocpid()
{
    8000163c:	1101                	addi	sp,sp,-32
    8000163e:	ec06                	sd	ra,24(sp)
    80001640:	e822                	sd	s0,16(sp)
    80001642:	1000                	addi	s0,sp,32
  int pid;
  
  acquire(&pid_lock);
    80001644:	00010517          	auipc	a0,0x10
    80001648:	45450513          	addi	a0,a0,1108 # 80011a98 <pid_lock>
    8000164c:	00008097          	auipc	ra,0x8
    80001650:	d32080e7          	jalr	-718(ra) # 8000937e <acquire>
  pid = nextpid;
    80001654:	0000a797          	auipc	a5,0xa
    80001658:	1dc78793          	addi	a5,a5,476 # 8000b830 <nextpid>
    8000165c:	439c                	lw	a5,0(a5)
    8000165e:	fef42623          	sw	a5,-20(s0)
  nextpid = nextpid + 1;
    80001662:	0000a797          	auipc	a5,0xa
    80001666:	1ce78793          	addi	a5,a5,462 # 8000b830 <nextpid>
    8000166a:	439c                	lw	a5,0(a5)
    8000166c:	2785                	addiw	a5,a5,1
    8000166e:	0007871b          	sext.w	a4,a5
    80001672:	0000a797          	auipc	a5,0xa
    80001676:	1be78793          	addi	a5,a5,446 # 8000b830 <nextpid>
    8000167a:	c398                	sw	a4,0(a5)
  release(&pid_lock);
    8000167c:	00010517          	auipc	a0,0x10
    80001680:	41c50513          	addi	a0,a0,1052 # 80011a98 <pid_lock>
    80001684:	00008097          	auipc	ra,0x8
    80001688:	d5e080e7          	jalr	-674(ra) # 800093e2 <release>

  return pid;
    8000168c:	fec42783          	lw	a5,-20(s0)
}
    80001690:	853e                	mv	a0,a5
    80001692:	60e2                	ld	ra,24(sp)
    80001694:	6442                	ld	s0,16(sp)
    80001696:	6105                	addi	sp,sp,32
    80001698:	8082                	ret

000000008000169a <allocproc>:
// If found, initialize state required to run in the kernel,
// and return with p->lock held.
// If there are no free procs, or a memory allocation fails, return 0.
static struct proc*
allocproc(void)
{
    8000169a:	1101                	addi	sp,sp,-32
    8000169c:	ec06                	sd	ra,24(sp)
    8000169e:	e822                	sd	s0,16(sp)
    800016a0:	1000                	addi	s0,sp,32
  struct proc *p;

  for(p = proc; p < &proc[NPROC]; p++) {
    800016a2:	0000a797          	auipc	a5,0xa
    800016a6:	7f678793          	addi	a5,a5,2038 # 8000be98 <proc>
    800016aa:	fef43423          	sd	a5,-24(s0)
    800016ae:	a80d                	j	800016e0 <allocproc+0x46>
    acquire(&p->lock);
    800016b0:	fe843783          	ld	a5,-24(s0)
    800016b4:	853e                	mv	a0,a5
    800016b6:	00008097          	auipc	ra,0x8
    800016ba:	cc8080e7          	jalr	-824(ra) # 8000937e <acquire>
    if(p->state == UNUSED) {
    800016be:	fe843783          	ld	a5,-24(s0)
    800016c2:	4f9c                	lw	a5,24(a5)
    800016c4:	cb85                	beqz	a5,800016f4 <allocproc+0x5a>
      goto found;
    } else {
      release(&p->lock);
    800016c6:	fe843783          	ld	a5,-24(s0)
    800016ca:	853e                	mv	a0,a5
    800016cc:	00008097          	auipc	ra,0x8
    800016d0:	d16080e7          	jalr	-746(ra) # 800093e2 <release>
  for(p = proc; p < &proc[NPROC]; p++) {
    800016d4:	fe843783          	ld	a5,-24(s0)
    800016d8:	17078793          	addi	a5,a5,368
    800016dc:	fef43423          	sd	a5,-24(s0)
    800016e0:	fe843703          	ld	a4,-24(s0)
    800016e4:	00010797          	auipc	a5,0x10
    800016e8:	3b478793          	addi	a5,a5,948 # 80011a98 <pid_lock>
    800016ec:	fcf762e3          	bltu	a4,a5,800016b0 <allocproc+0x16>
    }
  }
  return 0;
    800016f0:	4781                	li	a5,0
    800016f2:	a0e1                	j	800017ba <allocproc+0x120>
      goto found;
    800016f4:	0001                	nop

found:
  p->pid = allocpid();
    800016f6:	00000097          	auipc	ra,0x0
    800016fa:	f46080e7          	jalr	-186(ra) # 8000163c <allocpid>
    800016fe:	87aa                	mv	a5,a0
    80001700:	873e                	mv	a4,a5
    80001702:	fe843783          	ld	a5,-24(s0)
    80001706:	db98                	sw	a4,48(a5)
  p->state = USED;
    80001708:	fe843783          	ld	a5,-24(s0)
    8000170c:	4705                	li	a4,1
    8000170e:	cf98                	sw	a4,24(a5)

  // Allocate a trapframe page.
  if((p->trapframe = (struct trapframe *)kalloc()) == 0){
    80001710:	fffff097          	auipc	ra,0xfffff
    80001714:	a48080e7          	jalr	-1464(ra) # 80000158 <kalloc>
    80001718:	872a                	mv	a4,a0
    8000171a:	fe843783          	ld	a5,-24(s0)
    8000171e:	efb8                	sd	a4,88(a5)
    80001720:	fe843783          	ld	a5,-24(s0)
    80001724:	6fbc                	ld	a5,88(a5)
    80001726:	e385                	bnez	a5,80001746 <allocproc+0xac>
    freeproc(p);
    80001728:	fe843503          	ld	a0,-24(s0)
    8000172c:	00000097          	auipc	ra,0x0
    80001730:	098080e7          	jalr	152(ra) # 800017c4 <freeproc>
    release(&p->lock);
    80001734:	fe843783          	ld	a5,-24(s0)
    80001738:	853e                	mv	a0,a5
    8000173a:	00008097          	auipc	ra,0x8
    8000173e:	ca8080e7          	jalr	-856(ra) # 800093e2 <release>
    return 0;
    80001742:	4781                	li	a5,0
    80001744:	a89d                	j	800017ba <allocproc+0x120>
  }

  // An empty user page table.
  p->pagetable = proc_pagetable(p);
    80001746:	fe843503          	ld	a0,-24(s0)
    8000174a:	00000097          	auipc	ra,0x0
    8000174e:	118080e7          	jalr	280(ra) # 80001862 <proc_pagetable>
    80001752:	872a                	mv	a4,a0
    80001754:	fe843783          	ld	a5,-24(s0)
    80001758:	ebb8                	sd	a4,80(a5)
  if(p->pagetable == 0){
    8000175a:	fe843783          	ld	a5,-24(s0)
    8000175e:	6bbc                	ld	a5,80(a5)
    80001760:	e385                	bnez	a5,80001780 <allocproc+0xe6>
    freeproc(p);
    80001762:	fe843503          	ld	a0,-24(s0)
    80001766:	00000097          	auipc	ra,0x0
    8000176a:	05e080e7          	jalr	94(ra) # 800017c4 <freeproc>
    release(&p->lock);
    8000176e:	fe843783          	ld	a5,-24(s0)
    80001772:	853e                	mv	a0,a5
    80001774:	00008097          	auipc	ra,0x8
    80001778:	c6e080e7          	jalr	-914(ra) # 800093e2 <release>
    return 0;
    8000177c:	4781                	li	a5,0
    8000177e:	a835                	j	800017ba <allocproc+0x120>
  }

  // Set up new context to start executing at forkret,
  // which returns to user space.
  memset(&p->context, 0, sizeof(p->context));
    80001780:	fe843783          	ld	a5,-24(s0)
    80001784:	06078793          	addi	a5,a5,96
    80001788:	07000613          	li	a2,112
    8000178c:	4581                	li	a1,0
    8000178e:	853e                	mv	a0,a5
    80001790:	fffff097          	auipc	ra,0xfffff
    80001794:	a7c080e7          	jalr	-1412(ra) # 8000020c <memset>
  p->context.ra = (uint64)forkret;
    80001798:	00001717          	auipc	a4,0x1
    8000179c:	9f270713          	addi	a4,a4,-1550 # 8000218a <forkret>
    800017a0:	fe843783          	ld	a5,-24(s0)
    800017a4:	f3b8                	sd	a4,96(a5)
  p->context.sp = p->kstack + PGSIZE;
    800017a6:	fe843783          	ld	a5,-24(s0)
    800017aa:	63b8                	ld	a4,64(a5)
    800017ac:	6785                	lui	a5,0x1
    800017ae:	973e                	add	a4,a4,a5
    800017b0:	fe843783          	ld	a5,-24(s0)
    800017b4:	f7b8                	sd	a4,104(a5)

  return p;
    800017b6:	fe843783          	ld	a5,-24(s0)
}
    800017ba:	853e                	mv	a0,a5
    800017bc:	60e2                	ld	ra,24(sp)
    800017be:	6442                	ld	s0,16(sp)
    800017c0:	6105                	addi	sp,sp,32
    800017c2:	8082                	ret

00000000800017c4 <freeproc>:
// free a proc structure and the data hanging from it,
// including user pages.
// p->lock must be held.
static void
freeproc(struct proc *p)
{
    800017c4:	1101                	addi	sp,sp,-32
    800017c6:	ec06                	sd	ra,24(sp)
    800017c8:	e822                	sd	s0,16(sp)
    800017ca:	1000                	addi	s0,sp,32
    800017cc:	fea43423          	sd	a0,-24(s0)
  if(p->trapframe)
    800017d0:	fe843783          	ld	a5,-24(s0)
    800017d4:	6fbc                	ld	a5,88(a5)
    800017d6:	cb89                	beqz	a5,800017e8 <freeproc+0x24>
    kfree((void*)p->trapframe);
    800017d8:	fe843783          	ld	a5,-24(s0)
    800017dc:	6fbc                	ld	a5,88(a5)
    800017de:	853e                	mv	a0,a5
    800017e0:	fffff097          	auipc	ra,0xfffff
    800017e4:	8d4080e7          	jalr	-1836(ra) # 800000b4 <kfree>
  p->trapframe = 0;
    800017e8:	fe843783          	ld	a5,-24(s0)
    800017ec:	0407bc23          	sd	zero,88(a5) # 1058 <_entry-0x7fffefa8>
  if(p->pagetable)
    800017f0:	fe843783          	ld	a5,-24(s0)
    800017f4:	6bbc                	ld	a5,80(a5)
    800017f6:	cf89                	beqz	a5,80001810 <freeproc+0x4c>
    proc_freepagetable(p->pagetable, p->sz);
    800017f8:	fe843783          	ld	a5,-24(s0)
    800017fc:	6bb8                	ld	a4,80(a5)
    800017fe:	fe843783          	ld	a5,-24(s0)
    80001802:	67bc                	ld	a5,72(a5)
    80001804:	85be                	mv	a1,a5
    80001806:	853a                	mv	a0,a4
    80001808:	00000097          	auipc	ra,0x0
    8000180c:	11a080e7          	jalr	282(ra) # 80001922 <proc_freepagetable>
  p->pagetable = 0;
    80001810:	fe843783          	ld	a5,-24(s0)
    80001814:	0407b823          	sd	zero,80(a5)
  p->sz = 0;
    80001818:	fe843783          	ld	a5,-24(s0)
    8000181c:	0407b423          	sd	zero,72(a5)
  p->pid = 0;
    80001820:	fe843783          	ld	a5,-24(s0)
    80001824:	0207a823          	sw	zero,48(a5)
  p->parent = 0;
    80001828:	fe843783          	ld	a5,-24(s0)
    8000182c:	0207bc23          	sd	zero,56(a5)
  p->name[0] = 0;
    80001830:	fe843783          	ld	a5,-24(s0)
    80001834:	14078c23          	sb	zero,344(a5)
  p->chan = 0;
    80001838:	fe843783          	ld	a5,-24(s0)
    8000183c:	0207b023          	sd	zero,32(a5)
  p->killed = 0;
    80001840:	fe843783          	ld	a5,-24(s0)
    80001844:	0207a423          	sw	zero,40(a5)
  p->xstate = 0;
    80001848:	fe843783          	ld	a5,-24(s0)
    8000184c:	0207a623          	sw	zero,44(a5)
  p->state = UNUSED;
    80001850:	fe843783          	ld	a5,-24(s0)
    80001854:	0007ac23          	sw	zero,24(a5)
}
    80001858:	0001                	nop
    8000185a:	60e2                	ld	ra,24(sp)
    8000185c:	6442                	ld	s0,16(sp)
    8000185e:	6105                	addi	sp,sp,32
    80001860:	8082                	ret

0000000080001862 <proc_pagetable>:

// Create a user page table for a given process, with no user memory,
// but with trampoline and trapframe pages.
pagetable_t
proc_pagetable(struct proc *p)
{
    80001862:	7179                	addi	sp,sp,-48
    80001864:	f406                	sd	ra,40(sp)
    80001866:	f022                	sd	s0,32(sp)
    80001868:	1800                	addi	s0,sp,48
    8000186a:	fca43c23          	sd	a0,-40(s0)
  pagetable_t pagetable;

  // An empty page table.
  pagetable = uvmcreate();
    8000186e:	fffff097          	auipc	ra,0xfffff
    80001872:	3ac080e7          	jalr	940(ra) # 80000c1a <uvmcreate>
    80001876:	fea43423          	sd	a0,-24(s0)
  if(pagetable == 0)
    8000187a:	fe843783          	ld	a5,-24(s0)
    8000187e:	e399                	bnez	a5,80001884 <proc_pagetable+0x22>
    return 0;
    80001880:	4781                	li	a5,0
    80001882:	a859                	j	80001918 <proc_pagetable+0xb6>

  // map the trampoline code (for system call return)
  // at the highest user virtual address.
  // only the supervisor uses it, on the way
  // to/from user space, so not PTE_U.
  if(mappages(pagetable, TRAMPOLINE, PGSIZE,
    80001884:	00008797          	auipc	a5,0x8
    80001888:	77c78793          	addi	a5,a5,1916 # 8000a000 <_trampoline>
    8000188c:	4729                	li	a4,10
    8000188e:	86be                	mv	a3,a5
    80001890:	6605                	lui	a2,0x1
    80001892:	040007b7          	lui	a5,0x4000
    80001896:	17fd                	addi	a5,a5,-1 # 3ffffff <_entry-0x7c000001>
    80001898:	00c79593          	slli	a1,a5,0xc
    8000189c:	fe843503          	ld	a0,-24(s0)
    800018a0:	fffff097          	auipc	ra,0xfffff
    800018a4:	19c080e7          	jalr	412(ra) # 80000a3c <mappages>
    800018a8:	87aa                	mv	a5,a0
    800018aa:	0007db63          	bgez	a5,800018c0 <proc_pagetable+0x5e>
              (uint64)trampoline, PTE_R | PTE_X) < 0){
    uvmfree(pagetable, 0);
    800018ae:	4581                	li	a1,0
    800018b0:	fe843503          	ld	a0,-24(s0)
    800018b4:	fffff097          	auipc	ra,0xfffff
    800018b8:	662080e7          	jalr	1634(ra) # 80000f16 <uvmfree>
    return 0;
    800018bc:	4781                	li	a5,0
    800018be:	a8a9                	j	80001918 <proc_pagetable+0xb6>
  }

  // map the trapframe page just below the trampoline page, for
  // trampoline.S.
  if(mappages(pagetable, TRAPFRAME, PGSIZE,
              (uint64)(p->trapframe), PTE_R | PTE_W) < 0){
    800018c0:	fd843783          	ld	a5,-40(s0)
    800018c4:	6fbc                	ld	a5,88(a5)
  if(mappages(pagetable, TRAPFRAME, PGSIZE,
    800018c6:	4719                	li	a4,6
    800018c8:	86be                	mv	a3,a5
    800018ca:	6605                	lui	a2,0x1
    800018cc:	020007b7          	lui	a5,0x2000
    800018d0:	17fd                	addi	a5,a5,-1 # 1ffffff <_entry-0x7e000001>
    800018d2:	00d79593          	slli	a1,a5,0xd
    800018d6:	fe843503          	ld	a0,-24(s0)
    800018da:	fffff097          	auipc	ra,0xfffff
    800018de:	162080e7          	jalr	354(ra) # 80000a3c <mappages>
    800018e2:	87aa                	mv	a5,a0
    800018e4:	0207d863          	bgez	a5,80001914 <proc_pagetable+0xb2>
    uvmunmap(pagetable, TRAMPOLINE, 1, 0);
    800018e8:	4681                	li	a3,0
    800018ea:	4605                	li	a2,1
    800018ec:	040007b7          	lui	a5,0x4000
    800018f0:	17fd                	addi	a5,a5,-1 # 3ffffff <_entry-0x7c000001>
    800018f2:	00c79593          	slli	a1,a5,0xc
    800018f6:	fe843503          	ld	a0,-24(s0)
    800018fa:	fffff097          	auipc	ra,0xfffff
    800018fe:	220080e7          	jalr	544(ra) # 80000b1a <uvmunmap>
    uvmfree(pagetable, 0);
    80001902:	4581                	li	a1,0
    80001904:	fe843503          	ld	a0,-24(s0)
    80001908:	fffff097          	auipc	ra,0xfffff
    8000190c:	60e080e7          	jalr	1550(ra) # 80000f16 <uvmfree>
    return 0;
    80001910:	4781                	li	a5,0
    80001912:	a019                	j	80001918 <proc_pagetable+0xb6>
  }

  return pagetable;
    80001914:	fe843783          	ld	a5,-24(s0)
}
    80001918:	853e                	mv	a0,a5
    8000191a:	70a2                	ld	ra,40(sp)
    8000191c:	7402                	ld	s0,32(sp)
    8000191e:	6145                	addi	sp,sp,48
    80001920:	8082                	ret

0000000080001922 <proc_freepagetable>:

// Free a process's page table, and free the
// physical memory it refers to.
void
proc_freepagetable(pagetable_t pagetable, uint64 sz)
{
    80001922:	1101                	addi	sp,sp,-32
    80001924:	ec06                	sd	ra,24(sp)
    80001926:	e822                	sd	s0,16(sp)
    80001928:	1000                	addi	s0,sp,32
    8000192a:	fea43423          	sd	a0,-24(s0)
    8000192e:	feb43023          	sd	a1,-32(s0)
  uvmunmap(pagetable, TRAMPOLINE, 1, 0);
    80001932:	4681                	li	a3,0
    80001934:	4605                	li	a2,1
    80001936:	040007b7          	lui	a5,0x4000
    8000193a:	17fd                	addi	a5,a5,-1 # 3ffffff <_entry-0x7c000001>
    8000193c:	00c79593          	slli	a1,a5,0xc
    80001940:	fe843503          	ld	a0,-24(s0)
    80001944:	fffff097          	auipc	ra,0xfffff
    80001948:	1d6080e7          	jalr	470(ra) # 80000b1a <uvmunmap>
  uvmunmap(pagetable, TRAPFRAME, 1, 0);
    8000194c:	4681                	li	a3,0
    8000194e:	4605                	li	a2,1
    80001950:	020007b7          	lui	a5,0x2000
    80001954:	17fd                	addi	a5,a5,-1 # 1ffffff <_entry-0x7e000001>
    80001956:	00d79593          	slli	a1,a5,0xd
    8000195a:	fe843503          	ld	a0,-24(s0)
    8000195e:	fffff097          	auipc	ra,0xfffff
    80001962:	1bc080e7          	jalr	444(ra) # 80000b1a <uvmunmap>
  uvmfree(pagetable, sz);
    80001966:	fe043583          	ld	a1,-32(s0)
    8000196a:	fe843503          	ld	a0,-24(s0)
    8000196e:	fffff097          	auipc	ra,0xfffff
    80001972:	5a8080e7          	jalr	1448(ra) # 80000f16 <uvmfree>
}
    80001976:	0001                	nop
    80001978:	60e2                	ld	ra,24(sp)
    8000197a:	6442                	ld	s0,16(sp)
    8000197c:	6105                	addi	sp,sp,32
    8000197e:	8082                	ret

0000000080001980 <userinit>:
};

// Set up first user process.
void
userinit(void)
{
    80001980:	1101                	addi	sp,sp,-32
    80001982:	ec06                	sd	ra,24(sp)
    80001984:	e822                	sd	s0,16(sp)
    80001986:	1000                	addi	s0,sp,32
  struct proc *p;

  p = allocproc();
    80001988:	00000097          	auipc	ra,0x0
    8000198c:	d12080e7          	jalr	-750(ra) # 8000169a <allocproc>
    80001990:	fea43423          	sd	a0,-24(s0)
  initproc = p;
    80001994:	0000a797          	auipc	a5,0xa
    80001998:	0b478793          	addi	a5,a5,180 # 8000ba48 <initproc>
    8000199c:	fe843703          	ld	a4,-24(s0)
    800019a0:	e398                	sd	a4,0(a5)
  
  // allocate one user page and copy initcode's instructions
  // and data into it.
  uvmfirst(p->pagetable, initcode, sizeof(initcode));
    800019a2:	fe843783          	ld	a5,-24(s0)
    800019a6:	6bbc                	ld	a5,80(a5)
    800019a8:	03400613          	li	a2,52
    800019ac:	0000a597          	auipc	a1,0xa
    800019b0:	e9458593          	addi	a1,a1,-364 # 8000b840 <initcode>
    800019b4:	853e                	mv	a0,a5
    800019b6:	fffff097          	auipc	ra,0xfffff
    800019ba:	2a0080e7          	jalr	672(ra) # 80000c56 <uvmfirst>
  p->sz = PGSIZE;
    800019be:	fe843783          	ld	a5,-24(s0)
    800019c2:	6705                	lui	a4,0x1
    800019c4:	e7b8                	sd	a4,72(a5)

  // prepare for the very first "return" from kernel to user.
  p->trapframe->epc = 0;      // user program counter
    800019c6:	fe843783          	ld	a5,-24(s0)
    800019ca:	6fbc                	ld	a5,88(a5)
    800019cc:	0007bc23          	sd	zero,24(a5)
  p->trapframe->sp = PGSIZE;  // user stack pointer
    800019d0:	fe843783          	ld	a5,-24(s0)
    800019d4:	6fbc                	ld	a5,88(a5)
    800019d6:	6705                	lui	a4,0x1
    800019d8:	fb98                	sd	a4,48(a5)

  safestrcpy(p->name, "initcode", sizeof(p->name));
    800019da:	fe843783          	ld	a5,-24(s0)
    800019de:	15878793          	addi	a5,a5,344
    800019e2:	4641                	li	a2,16
    800019e4:	00009597          	auipc	a1,0x9
    800019e8:	79458593          	addi	a1,a1,1940 # 8000b178 <etext+0x178>
    800019ec:	853e                	mv	a0,a5
    800019ee:	fffff097          	auipc	ra,0xfffff
    800019f2:	b22080e7          	jalr	-1246(ra) # 80000510 <safestrcpy>
  p->cwd = namei("/");
    800019f6:	00009517          	auipc	a0,0x9
    800019fa:	79250513          	addi	a0,a0,1938 # 8000b188 <etext+0x188>
    800019fe:	00003097          	auipc	ra,0x3
    80001a02:	292080e7          	jalr	658(ra) # 80004c90 <namei>
    80001a06:	872a                	mv	a4,a0
    80001a08:	fe843783          	ld	a5,-24(s0)
    80001a0c:	14e7b823          	sd	a4,336(a5)

  p->state = RUNNABLE;
    80001a10:	fe843783          	ld	a5,-24(s0)
    80001a14:	470d                	li	a4,3
    80001a16:	cf98                	sw	a4,24(a5)

  // @felipe: Make sure no syscalls are being traced
  p->trace_mask = 0;
    80001a18:	fe843783          	ld	a5,-24(s0)
    80001a1c:	1607a423          	sw	zero,360(a5)

  release(&p->lock);
    80001a20:	fe843783          	ld	a5,-24(s0)
    80001a24:	853e                	mv	a0,a5
    80001a26:	00008097          	auipc	ra,0x8
    80001a2a:	9bc080e7          	jalr	-1604(ra) # 800093e2 <release>
}
    80001a2e:	0001                	nop
    80001a30:	60e2                	ld	ra,24(sp)
    80001a32:	6442                	ld	s0,16(sp)
    80001a34:	6105                	addi	sp,sp,32
    80001a36:	8082                	ret

0000000080001a38 <growproc>:

// Grow or shrink user memory by n bytes.
// Return 0 on success, -1 on failure.
int
growproc(int n)
{
    80001a38:	7179                	addi	sp,sp,-48
    80001a3a:	f406                	sd	ra,40(sp)
    80001a3c:	f022                	sd	s0,32(sp)
    80001a3e:	1800                	addi	s0,sp,48
    80001a40:	87aa                	mv	a5,a0
    80001a42:	fcf42e23          	sw	a5,-36(s0)
  uint64 sz;
  struct proc *p = myproc();
    80001a46:	00000097          	auipc	ra,0x0
    80001a4a:	bba080e7          	jalr	-1094(ra) # 80001600 <myproc>
    80001a4e:	fea43023          	sd	a0,-32(s0)

  sz = p->sz;
    80001a52:	fe043783          	ld	a5,-32(s0)
    80001a56:	67bc                	ld	a5,72(a5)
    80001a58:	fef43423          	sd	a5,-24(s0)
  if(n > 0){
    80001a5c:	fdc42783          	lw	a5,-36(s0)
    80001a60:	2781                	sext.w	a5,a5
    80001a62:	02f05963          	blez	a5,80001a94 <growproc+0x5c>
    if((sz = uvmalloc(p->pagetable, sz, sz + n, PTE_W)) == 0) {
    80001a66:	fe043783          	ld	a5,-32(s0)
    80001a6a:	6ba8                	ld	a0,80(a5)
    80001a6c:	fdc42703          	lw	a4,-36(s0)
    80001a70:	fe843783          	ld	a5,-24(s0)
    80001a74:	97ba                	add	a5,a5,a4
    80001a76:	4691                	li	a3,4
    80001a78:	863e                	mv	a2,a5
    80001a7a:	fe843583          	ld	a1,-24(s0)
    80001a7e:	fffff097          	auipc	ra,0xfffff
    80001a82:	260080e7          	jalr	608(ra) # 80000cde <uvmalloc>
    80001a86:	fea43423          	sd	a0,-24(s0)
    80001a8a:	fe843783          	ld	a5,-24(s0)
    80001a8e:	eb95                	bnez	a5,80001ac2 <growproc+0x8a>
      return -1;
    80001a90:	57fd                	li	a5,-1
    80001a92:	a835                	j	80001ace <growproc+0x96>
    }
  } else if(n < 0){
    80001a94:	fdc42783          	lw	a5,-36(s0)
    80001a98:	2781                	sext.w	a5,a5
    80001a9a:	0207d463          	bgez	a5,80001ac2 <growproc+0x8a>
    sz = uvmdealloc(p->pagetable, sz, sz + n);
    80001a9e:	fe043783          	ld	a5,-32(s0)
    80001aa2:	6bb4                	ld	a3,80(a5)
    80001aa4:	fdc42703          	lw	a4,-36(s0)
    80001aa8:	fe843783          	ld	a5,-24(s0)
    80001aac:	97ba                	add	a5,a5,a4
    80001aae:	863e                	mv	a2,a5
    80001ab0:	fe843583          	ld	a1,-24(s0)
    80001ab4:	8536                	mv	a0,a3
    80001ab6:	fffff097          	auipc	ra,0xfffff
    80001aba:	31a080e7          	jalr	794(ra) # 80000dd0 <uvmdealloc>
    80001abe:	fea43423          	sd	a0,-24(s0)
  }
  p->sz = sz;
    80001ac2:	fe043783          	ld	a5,-32(s0)
    80001ac6:	fe843703          	ld	a4,-24(s0)
    80001aca:	e7b8                	sd	a4,72(a5)
  return 0;
    80001acc:	4781                	li	a5,0
}
    80001ace:	853e                	mv	a0,a5
    80001ad0:	70a2                	ld	ra,40(sp)
    80001ad2:	7402                	ld	s0,32(sp)
    80001ad4:	6145                	addi	sp,sp,48
    80001ad6:	8082                	ret

0000000080001ad8 <fork>:

// Create a new process, copying the parent.
// Sets up child kernel stack to return as if from fork() system call.
int
fork(void)
{
    80001ad8:	7179                	addi	sp,sp,-48
    80001ada:	f406                	sd	ra,40(sp)
    80001adc:	f022                	sd	s0,32(sp)
    80001ade:	1800                	addi	s0,sp,48
  int i, pid;
  struct proc *np;
  struct proc *p = myproc();
    80001ae0:	00000097          	auipc	ra,0x0
    80001ae4:	b20080e7          	jalr	-1248(ra) # 80001600 <myproc>
    80001ae8:	fea43023          	sd	a0,-32(s0)

  // Allocate process.
  if((np = allocproc()) == 0){
    80001aec:	00000097          	auipc	ra,0x0
    80001af0:	bae080e7          	jalr	-1106(ra) # 8000169a <allocproc>
    80001af4:	fca43c23          	sd	a0,-40(s0)
    80001af8:	fd843783          	ld	a5,-40(s0)
    80001afc:	e399                	bnez	a5,80001b02 <fork+0x2a>
    return -1;
    80001afe:	57fd                	li	a5,-1
    80001b00:	a271                	j	80001c8c <fork+0x1b4>
  }

  // Copy user memory from parent to child.
  if(uvmcopy(p->pagetable, np->pagetable, p->sz) < 0){
    80001b02:	fe043783          	ld	a5,-32(s0)
    80001b06:	6bb8                	ld	a4,80(a5)
    80001b08:	fd843783          	ld	a5,-40(s0)
    80001b0c:	6bb4                	ld	a3,80(a5)
    80001b0e:	fe043783          	ld	a5,-32(s0)
    80001b12:	67bc                	ld	a5,72(a5)
    80001b14:	863e                	mv	a2,a5
    80001b16:	85b6                	mv	a1,a3
    80001b18:	853a                	mv	a0,a4
    80001b1a:	fffff097          	auipc	ra,0xfffff
    80001b1e:	446080e7          	jalr	1094(ra) # 80000f60 <uvmcopy>
    80001b22:	87aa                	mv	a5,a0
    80001b24:	0207d163          	bgez	a5,80001b46 <fork+0x6e>
    freeproc(np);
    80001b28:	fd843503          	ld	a0,-40(s0)
    80001b2c:	00000097          	auipc	ra,0x0
    80001b30:	c98080e7          	jalr	-872(ra) # 800017c4 <freeproc>
    release(&np->lock);
    80001b34:	fd843783          	ld	a5,-40(s0)
    80001b38:	853e                	mv	a0,a5
    80001b3a:	00008097          	auipc	ra,0x8
    80001b3e:	8a8080e7          	jalr	-1880(ra) # 800093e2 <release>
    return -1;
    80001b42:	57fd                	li	a5,-1
    80001b44:	a2a1                	j	80001c8c <fork+0x1b4>
  }
  np->sz = p->sz;
    80001b46:	fe043783          	ld	a5,-32(s0)
    80001b4a:	67b8                	ld	a4,72(a5)
    80001b4c:	fd843783          	ld	a5,-40(s0)
    80001b50:	e7b8                	sd	a4,72(a5)

  // copy saved user registers.
  *(np->trapframe) = *(p->trapframe);
    80001b52:	fe043783          	ld	a5,-32(s0)
    80001b56:	6fb8                	ld	a4,88(a5)
    80001b58:	fd843783          	ld	a5,-40(s0)
    80001b5c:	6fbc                	ld	a5,88(a5)
    80001b5e:	86be                	mv	a3,a5
    80001b60:	12000793          	li	a5,288
    80001b64:	863e                	mv	a2,a5
    80001b66:	85ba                	mv	a1,a4
    80001b68:	8536                	mv	a0,a3
    80001b6a:	fffff097          	auipc	ra,0xfffff
    80001b6e:	862080e7          	jalr	-1950(ra) # 800003cc <memcpy>

  // Cause fork to return 0 in the child.
  np->trapframe->a0 = 0;
    80001b72:	fd843783          	ld	a5,-40(s0)
    80001b76:	6fbc                	ld	a5,88(a5)
    80001b78:	0607b823          	sd	zero,112(a5)

  // increment reference counts on open file descriptors.
  for(i = 0; i < NOFILE; i++)
    80001b7c:	fe042623          	sw	zero,-20(s0)
    80001b80:	a0a9                	j	80001bca <fork+0xf2>
    if(p->ofile[i])
    80001b82:	fe043703          	ld	a4,-32(s0)
    80001b86:	fec42783          	lw	a5,-20(s0)
    80001b8a:	07e9                	addi	a5,a5,26
    80001b8c:	078e                	slli	a5,a5,0x3
    80001b8e:	97ba                	add	a5,a5,a4
    80001b90:	639c                	ld	a5,0(a5)
    80001b92:	c79d                	beqz	a5,80001bc0 <fork+0xe8>
      np->ofile[i] = filedup(p->ofile[i]);
    80001b94:	fe043703          	ld	a4,-32(s0)
    80001b98:	fec42783          	lw	a5,-20(s0)
    80001b9c:	07e9                	addi	a5,a5,26
    80001b9e:	078e                	slli	a5,a5,0x3
    80001ba0:	97ba                	add	a5,a5,a4
    80001ba2:	639c                	ld	a5,0(a5)
    80001ba4:	853e                	mv	a0,a5
    80001ba6:	00004097          	auipc	ra,0x4
    80001baa:	a82080e7          	jalr	-1406(ra) # 80005628 <filedup>
    80001bae:	86aa                	mv	a3,a0
    80001bb0:	fd843703          	ld	a4,-40(s0)
    80001bb4:	fec42783          	lw	a5,-20(s0)
    80001bb8:	07e9                	addi	a5,a5,26
    80001bba:	078e                	slli	a5,a5,0x3
    80001bbc:	97ba                	add	a5,a5,a4
    80001bbe:	e394                	sd	a3,0(a5)
  for(i = 0; i < NOFILE; i++)
    80001bc0:	fec42783          	lw	a5,-20(s0)
    80001bc4:	2785                	addiw	a5,a5,1
    80001bc6:	fef42623          	sw	a5,-20(s0)
    80001bca:	fec42783          	lw	a5,-20(s0)
    80001bce:	0007871b          	sext.w	a4,a5
    80001bd2:	47bd                	li	a5,15
    80001bd4:	fae7d7e3          	bge	a5,a4,80001b82 <fork+0xaa>
  np->cwd = idup(p->cwd);
    80001bd8:	fe043783          	ld	a5,-32(s0)
    80001bdc:	1507b783          	ld	a5,336(a5)
    80001be0:	853e                	mv	a0,a5
    80001be2:	00002097          	auipc	ra,0x2
    80001be6:	332080e7          	jalr	818(ra) # 80003f14 <idup>
    80001bea:	872a                	mv	a4,a0
    80001bec:	fd843783          	ld	a5,-40(s0)
    80001bf0:	14e7b823          	sd	a4,336(a5)

  safestrcpy(np->name, p->name, sizeof(p->name));
    80001bf4:	fd843783          	ld	a5,-40(s0)
    80001bf8:	15878713          	addi	a4,a5,344
    80001bfc:	fe043783          	ld	a5,-32(s0)
    80001c00:	15878793          	addi	a5,a5,344
    80001c04:	4641                	li	a2,16
    80001c06:	85be                	mv	a1,a5
    80001c08:	853a                	mv	a0,a4
    80001c0a:	fffff097          	auipc	ra,0xfffff
    80001c0e:	906080e7          	jalr	-1786(ra) # 80000510 <safestrcpy>

  pid = np->pid;
    80001c12:	fd843783          	ld	a5,-40(s0)
    80001c16:	5b9c                	lw	a5,48(a5)
    80001c18:	fcf42a23          	sw	a5,-44(s0)

  release(&np->lock);
    80001c1c:	fd843783          	ld	a5,-40(s0)
    80001c20:	853e                	mv	a0,a5
    80001c22:	00007097          	auipc	ra,0x7
    80001c26:	7c0080e7          	jalr	1984(ra) # 800093e2 <release>

  acquire(&wait_lock);
    80001c2a:	00010517          	auipc	a0,0x10
    80001c2e:	e8650513          	addi	a0,a0,-378 # 80011ab0 <wait_lock>
    80001c32:	00007097          	auipc	ra,0x7
    80001c36:	74c080e7          	jalr	1868(ra) # 8000937e <acquire>
  np->parent = p;
    80001c3a:	fd843783          	ld	a5,-40(s0)
    80001c3e:	fe043703          	ld	a4,-32(s0)
    80001c42:	ff98                	sd	a4,56(a5)
  release(&wait_lock);
    80001c44:	00010517          	auipc	a0,0x10
    80001c48:	e6c50513          	addi	a0,a0,-404 # 80011ab0 <wait_lock>
    80001c4c:	00007097          	auipc	ra,0x7
    80001c50:	796080e7          	jalr	1942(ra) # 800093e2 <release>

  acquire(&np->lock);
    80001c54:	fd843783          	ld	a5,-40(s0)
    80001c58:	853e                	mv	a0,a5
    80001c5a:	00007097          	auipc	ra,0x7
    80001c5e:	724080e7          	jalr	1828(ra) # 8000937e <acquire>
  np->state = RUNNABLE;
    80001c62:	fd843783          	ld	a5,-40(s0)
    80001c66:	470d                	li	a4,3
    80001c68:	cf98                	sw	a4,24(a5)
  release(&np->lock);
    80001c6a:	fd843783          	ld	a5,-40(s0)
    80001c6e:	853e                	mv	a0,a5
    80001c70:	00007097          	auipc	ra,0x7
    80001c74:	772080e7          	jalr	1906(ra) # 800093e2 <release>

  np->trace_mask = p->trace_mask;
    80001c78:	fe043783          	ld	a5,-32(s0)
    80001c7c:	1687a703          	lw	a4,360(a5)
    80001c80:	fd843783          	ld	a5,-40(s0)
    80001c84:	16e7a423          	sw	a4,360(a5)

  return pid;
    80001c88:	fd442783          	lw	a5,-44(s0)
}
    80001c8c:	853e                	mv	a0,a5
    80001c8e:	70a2                	ld	ra,40(sp)
    80001c90:	7402                	ld	s0,32(sp)
    80001c92:	6145                	addi	sp,sp,48
    80001c94:	8082                	ret

0000000080001c96 <reparent>:

// Pass p's abandoned children to init.
// Caller must hold wait_lock.
void
reparent(struct proc *p)
{
    80001c96:	7179                	addi	sp,sp,-48
    80001c98:	f406                	sd	ra,40(sp)
    80001c9a:	f022                	sd	s0,32(sp)
    80001c9c:	1800                	addi	s0,sp,48
    80001c9e:	fca43c23          	sd	a0,-40(s0)
  struct proc *pp;

  for(pp = proc; pp < &proc[NPROC]; pp++){
    80001ca2:	0000a797          	auipc	a5,0xa
    80001ca6:	1f678793          	addi	a5,a5,502 # 8000be98 <proc>
    80001caa:	fef43423          	sd	a5,-24(s0)
    80001cae:	a081                	j	80001cee <reparent+0x58>
    if(pp->parent == p){
    80001cb0:	fe843783          	ld	a5,-24(s0)
    80001cb4:	7f9c                	ld	a5,56(a5)
    80001cb6:	fd843703          	ld	a4,-40(s0)
    80001cba:	02f71463          	bne	a4,a5,80001ce2 <reparent+0x4c>
      pp->parent = initproc;
    80001cbe:	0000a797          	auipc	a5,0xa
    80001cc2:	d8a78793          	addi	a5,a5,-630 # 8000ba48 <initproc>
    80001cc6:	6398                	ld	a4,0(a5)
    80001cc8:	fe843783          	ld	a5,-24(s0)
    80001ccc:	ff98                	sd	a4,56(a5)
      wakeup(initproc);
    80001cce:	0000a797          	auipc	a5,0xa
    80001cd2:	d7a78793          	addi	a5,a5,-646 # 8000ba48 <initproc>
    80001cd6:	639c                	ld	a5,0(a5)
    80001cd8:	853e                	mv	a0,a5
    80001cda:	00000097          	auipc	ra,0x0
    80001cde:	57c080e7          	jalr	1404(ra) # 80002256 <wakeup>
  for(pp = proc; pp < &proc[NPROC]; pp++){
    80001ce2:	fe843783          	ld	a5,-24(s0)
    80001ce6:	17078793          	addi	a5,a5,368
    80001cea:	fef43423          	sd	a5,-24(s0)
    80001cee:	fe843703          	ld	a4,-24(s0)
    80001cf2:	00010797          	auipc	a5,0x10
    80001cf6:	da678793          	addi	a5,a5,-602 # 80011a98 <pid_lock>
    80001cfa:	faf76be3          	bltu	a4,a5,80001cb0 <reparent+0x1a>
    }
  }
}
    80001cfe:	0001                	nop
    80001d00:	0001                	nop
    80001d02:	70a2                	ld	ra,40(sp)
    80001d04:	7402                	ld	s0,32(sp)
    80001d06:	6145                	addi	sp,sp,48
    80001d08:	8082                	ret

0000000080001d0a <exit>:
// Exit the current process.  Does not return.
// An exited process remains in the zombie state
// until its parent calls wait().
void
exit(int status)
{
    80001d0a:	7139                	addi	sp,sp,-64
    80001d0c:	fc06                	sd	ra,56(sp)
    80001d0e:	f822                	sd	s0,48(sp)
    80001d10:	0080                	addi	s0,sp,64
    80001d12:	87aa                	mv	a5,a0
    80001d14:	fcf42623          	sw	a5,-52(s0)
  struct proc *p = myproc();
    80001d18:	00000097          	auipc	ra,0x0
    80001d1c:	8e8080e7          	jalr	-1816(ra) # 80001600 <myproc>
    80001d20:	fea43023          	sd	a0,-32(s0)

  if(p == initproc)
    80001d24:	0000a797          	auipc	a5,0xa
    80001d28:	d2478793          	addi	a5,a5,-732 # 8000ba48 <initproc>
    80001d2c:	639c                	ld	a5,0(a5)
    80001d2e:	fe043703          	ld	a4,-32(s0)
    80001d32:	00f71a63          	bne	a4,a5,80001d46 <exit+0x3c>
    panic("init exiting");
    80001d36:	00009517          	auipc	a0,0x9
    80001d3a:	45a50513          	addi	a0,a0,1114 # 8000b190 <etext+0x190>
    80001d3e:	00007097          	auipc	ra,0x7
    80001d42:	1f8080e7          	jalr	504(ra) # 80008f36 <panic>

  // Close all open files.
  for(int fd = 0; fd < NOFILE; fd++){
    80001d46:	fe042623          	sw	zero,-20(s0)
    80001d4a:	a881                	j	80001d9a <exit+0x90>
    if(p->ofile[fd]){
    80001d4c:	fe043703          	ld	a4,-32(s0)
    80001d50:	fec42783          	lw	a5,-20(s0)
    80001d54:	07e9                	addi	a5,a5,26
    80001d56:	078e                	slli	a5,a5,0x3
    80001d58:	97ba                	add	a5,a5,a4
    80001d5a:	639c                	ld	a5,0(a5)
    80001d5c:	cb95                	beqz	a5,80001d90 <exit+0x86>
      struct file *f = p->ofile[fd];
    80001d5e:	fe043703          	ld	a4,-32(s0)
    80001d62:	fec42783          	lw	a5,-20(s0)
    80001d66:	07e9                	addi	a5,a5,26
    80001d68:	078e                	slli	a5,a5,0x3
    80001d6a:	97ba                	add	a5,a5,a4
    80001d6c:	639c                	ld	a5,0(a5)
    80001d6e:	fcf43c23          	sd	a5,-40(s0)
      fileclose(f);
    80001d72:	fd843503          	ld	a0,-40(s0)
    80001d76:	00004097          	auipc	ra,0x4
    80001d7a:	918080e7          	jalr	-1768(ra) # 8000568e <fileclose>
      p->ofile[fd] = 0;
    80001d7e:	fe043703          	ld	a4,-32(s0)
    80001d82:	fec42783          	lw	a5,-20(s0)
    80001d86:	07e9                	addi	a5,a5,26
    80001d88:	078e                	slli	a5,a5,0x3
    80001d8a:	97ba                	add	a5,a5,a4
    80001d8c:	0007b023          	sd	zero,0(a5)
  for(int fd = 0; fd < NOFILE; fd++){
    80001d90:	fec42783          	lw	a5,-20(s0)
    80001d94:	2785                	addiw	a5,a5,1
    80001d96:	fef42623          	sw	a5,-20(s0)
    80001d9a:	fec42783          	lw	a5,-20(s0)
    80001d9e:	0007871b          	sext.w	a4,a5
    80001da2:	47bd                	li	a5,15
    80001da4:	fae7d4e3          	bge	a5,a4,80001d4c <exit+0x42>
    }
  }

  begin_op();
    80001da8:	00003097          	auipc	ra,0x3
    80001dac:	24c080e7          	jalr	588(ra) # 80004ff4 <begin_op>
  iput(p->cwd);
    80001db0:	fe043783          	ld	a5,-32(s0)
    80001db4:	1507b783          	ld	a5,336(a5)
    80001db8:	853e                	mv	a0,a5
    80001dba:	00002097          	auipc	ra,0x2
    80001dbe:	334080e7          	jalr	820(ra) # 800040ee <iput>
  end_op();
    80001dc2:	00003097          	auipc	ra,0x3
    80001dc6:	2f4080e7          	jalr	756(ra) # 800050b6 <end_op>
  p->cwd = 0;
    80001dca:	fe043783          	ld	a5,-32(s0)
    80001dce:	1407b823          	sd	zero,336(a5)

  acquire(&wait_lock);
    80001dd2:	00010517          	auipc	a0,0x10
    80001dd6:	cde50513          	addi	a0,a0,-802 # 80011ab0 <wait_lock>
    80001dda:	00007097          	auipc	ra,0x7
    80001dde:	5a4080e7          	jalr	1444(ra) # 8000937e <acquire>

  // Give any children to init.
  reparent(p);
    80001de2:	fe043503          	ld	a0,-32(s0)
    80001de6:	00000097          	auipc	ra,0x0
    80001dea:	eb0080e7          	jalr	-336(ra) # 80001c96 <reparent>

  // Parent might be sleeping in wait().
  wakeup(p->parent);
    80001dee:	fe043783          	ld	a5,-32(s0)
    80001df2:	7f9c                	ld	a5,56(a5)
    80001df4:	853e                	mv	a0,a5
    80001df6:	00000097          	auipc	ra,0x0
    80001dfa:	460080e7          	jalr	1120(ra) # 80002256 <wakeup>
  
  acquire(&p->lock);
    80001dfe:	fe043783          	ld	a5,-32(s0)
    80001e02:	853e                	mv	a0,a5
    80001e04:	00007097          	auipc	ra,0x7
    80001e08:	57a080e7          	jalr	1402(ra) # 8000937e <acquire>

  p->xstate = status;
    80001e0c:	fe043783          	ld	a5,-32(s0)
    80001e10:	fcc42703          	lw	a4,-52(s0)
    80001e14:	d7d8                	sw	a4,44(a5)
  p->state = ZOMBIE;
    80001e16:	fe043783          	ld	a5,-32(s0)
    80001e1a:	4715                	li	a4,5
    80001e1c:	cf98                	sw	a4,24(a5)

  release(&wait_lock);
    80001e1e:	00010517          	auipc	a0,0x10
    80001e22:	c9250513          	addi	a0,a0,-878 # 80011ab0 <wait_lock>
    80001e26:	00007097          	auipc	ra,0x7
    80001e2a:	5bc080e7          	jalr	1468(ra) # 800093e2 <release>

  // Jump into the scheduler, never to return.
  sched();
    80001e2e:	00000097          	auipc	ra,0x0
    80001e32:	230080e7          	jalr	560(ra) # 8000205e <sched>
  panic("zombie exit");
    80001e36:	00009517          	auipc	a0,0x9
    80001e3a:	36a50513          	addi	a0,a0,874 # 8000b1a0 <etext+0x1a0>
    80001e3e:	00007097          	auipc	ra,0x7
    80001e42:	0f8080e7          	jalr	248(ra) # 80008f36 <panic>

0000000080001e46 <wait>:

// Wait for a child process to exit and return its pid.
// Return -1 if this process has no children.
int
wait(uint64 addr)
{
    80001e46:	7139                	addi	sp,sp,-64
    80001e48:	fc06                	sd	ra,56(sp)
    80001e4a:	f822                	sd	s0,48(sp)
    80001e4c:	0080                	addi	s0,sp,64
    80001e4e:	fca43423          	sd	a0,-56(s0)
  struct proc *pp;
  int havekids, pid;
  struct proc *p = myproc();
    80001e52:	fffff097          	auipc	ra,0xfffff
    80001e56:	7ae080e7          	jalr	1966(ra) # 80001600 <myproc>
    80001e5a:	fca43c23          	sd	a0,-40(s0)

  acquire(&wait_lock);
    80001e5e:	00010517          	auipc	a0,0x10
    80001e62:	c5250513          	addi	a0,a0,-942 # 80011ab0 <wait_lock>
    80001e66:	00007097          	auipc	ra,0x7
    80001e6a:	518080e7          	jalr	1304(ra) # 8000937e <acquire>

  for(;;){
    // Scan through table looking for exited children.
    havekids = 0;
    80001e6e:	fe042223          	sw	zero,-28(s0)
    for(pp = proc; pp < &proc[NPROC]; pp++){
    80001e72:	0000a797          	auipc	a5,0xa
    80001e76:	02678793          	addi	a5,a5,38 # 8000be98 <proc>
    80001e7a:	fef43423          	sd	a5,-24(s0)
    80001e7e:	a8d1                	j	80001f52 <wait+0x10c>
      if(pp->parent == p){
    80001e80:	fe843783          	ld	a5,-24(s0)
    80001e84:	7f9c                	ld	a5,56(a5)
    80001e86:	fd843703          	ld	a4,-40(s0)
    80001e8a:	0af71e63          	bne	a4,a5,80001f46 <wait+0x100>
        // make sure the child isn't still in exit() or swtch().
        acquire(&pp->lock);
    80001e8e:	fe843783          	ld	a5,-24(s0)
    80001e92:	853e                	mv	a0,a5
    80001e94:	00007097          	auipc	ra,0x7
    80001e98:	4ea080e7          	jalr	1258(ra) # 8000937e <acquire>

        havekids = 1;
    80001e9c:	4785                	li	a5,1
    80001e9e:	fef42223          	sw	a5,-28(s0)
        if(pp->state == ZOMBIE){
    80001ea2:	fe843783          	ld	a5,-24(s0)
    80001ea6:	4f9c                	lw	a5,24(a5)
    80001ea8:	873e                	mv	a4,a5
    80001eaa:	4795                	li	a5,5
    80001eac:	08f71663          	bne	a4,a5,80001f38 <wait+0xf2>
          // Found one.
          pid = pp->pid;
    80001eb0:	fe843783          	ld	a5,-24(s0)
    80001eb4:	5b9c                	lw	a5,48(a5)
    80001eb6:	fcf42a23          	sw	a5,-44(s0)
          if(addr != 0 && copyout(p->pagetable, addr, (char *)&pp->xstate,
    80001eba:	fc843783          	ld	a5,-56(s0)
    80001ebe:	c7a9                	beqz	a5,80001f08 <wait+0xc2>
    80001ec0:	fd843783          	ld	a5,-40(s0)
    80001ec4:	6bb8                	ld	a4,80(a5)
    80001ec6:	fe843783          	ld	a5,-24(s0)
    80001eca:	02c78793          	addi	a5,a5,44
    80001ece:	4691                	li	a3,4
    80001ed0:	863e                	mv	a2,a5
    80001ed2:	fc843583          	ld	a1,-56(s0)
    80001ed6:	853a                	mv	a0,a4
    80001ed8:	fffff097          	auipc	ra,0xfffff
    80001edc:	1f2080e7          	jalr	498(ra) # 800010ca <copyout>
    80001ee0:	87aa                	mv	a5,a0
    80001ee2:	0207d363          	bgez	a5,80001f08 <wait+0xc2>
                                  sizeof(pp->xstate)) < 0) {
            release(&pp->lock);
    80001ee6:	fe843783          	ld	a5,-24(s0)
    80001eea:	853e                	mv	a0,a5
    80001eec:	00007097          	auipc	ra,0x7
    80001ef0:	4f6080e7          	jalr	1270(ra) # 800093e2 <release>
            release(&wait_lock);
    80001ef4:	00010517          	auipc	a0,0x10
    80001ef8:	bbc50513          	addi	a0,a0,-1092 # 80011ab0 <wait_lock>
    80001efc:	00007097          	auipc	ra,0x7
    80001f00:	4e6080e7          	jalr	1254(ra) # 800093e2 <release>
            return -1;
    80001f04:	57fd                	li	a5,-1
    80001f06:	a879                	j	80001fa4 <wait+0x15e>
          }
          freeproc(pp);
    80001f08:	fe843503          	ld	a0,-24(s0)
    80001f0c:	00000097          	auipc	ra,0x0
    80001f10:	8b8080e7          	jalr	-1864(ra) # 800017c4 <freeproc>
          release(&pp->lock);
    80001f14:	fe843783          	ld	a5,-24(s0)
    80001f18:	853e                	mv	a0,a5
    80001f1a:	00007097          	auipc	ra,0x7
    80001f1e:	4c8080e7          	jalr	1224(ra) # 800093e2 <release>
          release(&wait_lock);
    80001f22:	00010517          	auipc	a0,0x10
    80001f26:	b8e50513          	addi	a0,a0,-1138 # 80011ab0 <wait_lock>
    80001f2a:	00007097          	auipc	ra,0x7
    80001f2e:	4b8080e7          	jalr	1208(ra) # 800093e2 <release>
          return pid;
    80001f32:	fd442783          	lw	a5,-44(s0)
    80001f36:	a0bd                	j	80001fa4 <wait+0x15e>
        }
        release(&pp->lock);
    80001f38:	fe843783          	ld	a5,-24(s0)
    80001f3c:	853e                	mv	a0,a5
    80001f3e:	00007097          	auipc	ra,0x7
    80001f42:	4a4080e7          	jalr	1188(ra) # 800093e2 <release>
    for(pp = proc; pp < &proc[NPROC]; pp++){
    80001f46:	fe843783          	ld	a5,-24(s0)
    80001f4a:	17078793          	addi	a5,a5,368
    80001f4e:	fef43423          	sd	a5,-24(s0)
    80001f52:	fe843703          	ld	a4,-24(s0)
    80001f56:	00010797          	auipc	a5,0x10
    80001f5a:	b4278793          	addi	a5,a5,-1214 # 80011a98 <pid_lock>
    80001f5e:	f2f761e3          	bltu	a4,a5,80001e80 <wait+0x3a>
      }
    }

    // No point waiting if we don't have any children.
    if(!havekids || killed(p)){
    80001f62:	fe442783          	lw	a5,-28(s0)
    80001f66:	2781                	sext.w	a5,a5
    80001f68:	cb89                	beqz	a5,80001f7a <wait+0x134>
    80001f6a:	fd843503          	ld	a0,-40(s0)
    80001f6e:	00000097          	auipc	ra,0x0
    80001f72:	456080e7          	jalr	1110(ra) # 800023c4 <killed>
    80001f76:	87aa                	mv	a5,a0
    80001f78:	cb99                	beqz	a5,80001f8e <wait+0x148>
      release(&wait_lock);
    80001f7a:	00010517          	auipc	a0,0x10
    80001f7e:	b3650513          	addi	a0,a0,-1226 # 80011ab0 <wait_lock>
    80001f82:	00007097          	auipc	ra,0x7
    80001f86:	460080e7          	jalr	1120(ra) # 800093e2 <release>
      return -1;
    80001f8a:	57fd                	li	a5,-1
    80001f8c:	a821                	j	80001fa4 <wait+0x15e>
    }
    
    // Wait for a child to exit.
    sleep(p, &wait_lock);  //DOC: wait-sleep
    80001f8e:	00010597          	auipc	a1,0x10
    80001f92:	b2258593          	addi	a1,a1,-1246 # 80011ab0 <wait_lock>
    80001f96:	fd843503          	ld	a0,-40(s0)
    80001f9a:	00000097          	auipc	ra,0x0
    80001f9e:	240080e7          	jalr	576(ra) # 800021da <sleep>
    havekids = 0;
    80001fa2:	b5f1                	j	80001e6e <wait+0x28>
  }
}
    80001fa4:	853e                	mv	a0,a5
    80001fa6:	70e2                	ld	ra,56(sp)
    80001fa8:	7442                	ld	s0,48(sp)
    80001faa:	6121                	addi	sp,sp,64
    80001fac:	8082                	ret

0000000080001fae <scheduler>:
//  - swtch to start running that process.
//  - eventually that process transfers control
//    via swtch back to the scheduler.
void
scheduler(void)
{
    80001fae:	1101                	addi	sp,sp,-32
    80001fb0:	ec06                	sd	ra,24(sp)
    80001fb2:	e822                	sd	s0,16(sp)
    80001fb4:	1000                	addi	s0,sp,32
  struct proc *p;
  struct cpu *c = mycpu();
    80001fb6:	fffff097          	auipc	ra,0xfffff
    80001fba:	610080e7          	jalr	1552(ra) # 800015c6 <mycpu>
    80001fbe:	fea43023          	sd	a0,-32(s0)
  
  c->proc = 0;
    80001fc2:	fe043783          	ld	a5,-32(s0)
    80001fc6:	0007b023          	sd	zero,0(a5)
  for(;;){
    // Avoid deadlock by ensuring that devices can interrupt.
    intr_on();
    80001fca:	fffff097          	auipc	ra,0xfffff
    80001fce:	3de080e7          	jalr	990(ra) # 800013a8 <intr_on>

    for(p = proc; p < &proc[NPROC]; p++) {
    80001fd2:	0000a797          	auipc	a5,0xa
    80001fd6:	ec678793          	addi	a5,a5,-314 # 8000be98 <proc>
    80001fda:	fef43423          	sd	a5,-24(s0)
    80001fde:	a0bd                	j	8000204c <scheduler+0x9e>
      acquire(&p->lock);
    80001fe0:	fe843783          	ld	a5,-24(s0)
    80001fe4:	853e                	mv	a0,a5
    80001fe6:	00007097          	auipc	ra,0x7
    80001fea:	398080e7          	jalr	920(ra) # 8000937e <acquire>
      if(p->state == RUNNABLE) {
    80001fee:	fe843783          	ld	a5,-24(s0)
    80001ff2:	4f9c                	lw	a5,24(a5)
    80001ff4:	873e                	mv	a4,a5
    80001ff6:	478d                	li	a5,3
    80001ff8:	02f71d63          	bne	a4,a5,80002032 <scheduler+0x84>
        // Switch to chosen process.  It is the process's job
        // to release its lock and then reacquire it
        // before jumping back to us.
        p->state = RUNNING;
    80001ffc:	fe843783          	ld	a5,-24(s0)
    80002000:	4711                	li	a4,4
    80002002:	cf98                	sw	a4,24(a5)
        c->proc = p;
    80002004:	fe043783          	ld	a5,-32(s0)
    80002008:	fe843703          	ld	a4,-24(s0)
    8000200c:	e398                	sd	a4,0(a5)
        swtch(&c->context, &p->context);
    8000200e:	fe043783          	ld	a5,-32(s0)
    80002012:	00878713          	addi	a4,a5,8
    80002016:	fe843783          	ld	a5,-24(s0)
    8000201a:	06078793          	addi	a5,a5,96
    8000201e:	85be                	mv	a1,a5
    80002020:	853a                	mv	a0,a4
    80002022:	00000097          	auipc	ra,0x0
    80002026:	5fe080e7          	jalr	1534(ra) # 80002620 <swtch>

        // Process is done running for now.
        // It should have changed its p->state before coming back.
        c->proc = 0;
    8000202a:	fe043783          	ld	a5,-32(s0)
    8000202e:	0007b023          	sd	zero,0(a5)
      }
      release(&p->lock);
    80002032:	fe843783          	ld	a5,-24(s0)
    80002036:	853e                	mv	a0,a5
    80002038:	00007097          	auipc	ra,0x7
    8000203c:	3aa080e7          	jalr	938(ra) # 800093e2 <release>
    for(p = proc; p < &proc[NPROC]; p++) {
    80002040:	fe843783          	ld	a5,-24(s0)
    80002044:	17078793          	addi	a5,a5,368
    80002048:	fef43423          	sd	a5,-24(s0)
    8000204c:	fe843703          	ld	a4,-24(s0)
    80002050:	00010797          	auipc	a5,0x10
    80002054:	a4878793          	addi	a5,a5,-1464 # 80011a98 <pid_lock>
    80002058:	f8f764e3          	bltu	a4,a5,80001fe0 <scheduler+0x32>
    intr_on();
    8000205c:	b7bd                	j	80001fca <scheduler+0x1c>

000000008000205e <sched>:
// be proc->intena and proc->noff, but that would
// break in the few places where a lock is held but
// there's no process.
void
sched(void)
{
    8000205e:	7179                	addi	sp,sp,-48
    80002060:	f406                	sd	ra,40(sp)
    80002062:	f022                	sd	s0,32(sp)
    80002064:	ec26                	sd	s1,24(sp)
    80002066:	1800                	addi	s0,sp,48
  int intena;
  struct proc *p = myproc();
    80002068:	fffff097          	auipc	ra,0xfffff
    8000206c:	598080e7          	jalr	1432(ra) # 80001600 <myproc>
    80002070:	fca43c23          	sd	a0,-40(s0)

  if(!holding(&p->lock))
    80002074:	fd843783          	ld	a5,-40(s0)
    80002078:	853e                	mv	a0,a5
    8000207a:	00007097          	auipc	ra,0x7
    8000207e:	3be080e7          	jalr	958(ra) # 80009438 <holding>
    80002082:	87aa                	mv	a5,a0
    80002084:	eb89                	bnez	a5,80002096 <sched+0x38>
    panic("sched p->lock");
    80002086:	00009517          	auipc	a0,0x9
    8000208a:	12a50513          	addi	a0,a0,298 # 8000b1b0 <etext+0x1b0>
    8000208e:	00007097          	auipc	ra,0x7
    80002092:	ea8080e7          	jalr	-344(ra) # 80008f36 <panic>
  if(mycpu()->noff != 1)
    80002096:	fffff097          	auipc	ra,0xfffff
    8000209a:	530080e7          	jalr	1328(ra) # 800015c6 <mycpu>
    8000209e:	87aa                	mv	a5,a0
    800020a0:	5fbc                	lw	a5,120(a5)
    800020a2:	873e                	mv	a4,a5
    800020a4:	4785                	li	a5,1
    800020a6:	00f70a63          	beq	a4,a5,800020ba <sched+0x5c>
    panic("sched locks");
    800020aa:	00009517          	auipc	a0,0x9
    800020ae:	11650513          	addi	a0,a0,278 # 8000b1c0 <etext+0x1c0>
    800020b2:	00007097          	auipc	ra,0x7
    800020b6:	e84080e7          	jalr	-380(ra) # 80008f36 <panic>
  if(p->state == RUNNING)
    800020ba:	fd843783          	ld	a5,-40(s0)
    800020be:	4f9c                	lw	a5,24(a5)
    800020c0:	873e                	mv	a4,a5
    800020c2:	4791                	li	a5,4
    800020c4:	00f71a63          	bne	a4,a5,800020d8 <sched+0x7a>
    panic("sched running");
    800020c8:	00009517          	auipc	a0,0x9
    800020cc:	10850513          	addi	a0,a0,264 # 8000b1d0 <etext+0x1d0>
    800020d0:	00007097          	auipc	ra,0x7
    800020d4:	e66080e7          	jalr	-410(ra) # 80008f36 <panic>
  if(intr_get())
    800020d8:	fffff097          	auipc	ra,0xfffff
    800020dc:	2fa080e7          	jalr	762(ra) # 800013d2 <intr_get>
    800020e0:	87aa                	mv	a5,a0
    800020e2:	cb89                	beqz	a5,800020f4 <sched+0x96>
    panic("sched interruptible");
    800020e4:	00009517          	auipc	a0,0x9
    800020e8:	0fc50513          	addi	a0,a0,252 # 8000b1e0 <etext+0x1e0>
    800020ec:	00007097          	auipc	ra,0x7
    800020f0:	e4a080e7          	jalr	-438(ra) # 80008f36 <panic>

  intena = mycpu()->intena;
    800020f4:	fffff097          	auipc	ra,0xfffff
    800020f8:	4d2080e7          	jalr	1234(ra) # 800015c6 <mycpu>
    800020fc:	87aa                	mv	a5,a0
    800020fe:	5ffc                	lw	a5,124(a5)
    80002100:	fcf42a23          	sw	a5,-44(s0)
  swtch(&p->context, &mycpu()->context);
    80002104:	fd843783          	ld	a5,-40(s0)
    80002108:	06078493          	addi	s1,a5,96
    8000210c:	fffff097          	auipc	ra,0xfffff
    80002110:	4ba080e7          	jalr	1210(ra) # 800015c6 <mycpu>
    80002114:	87aa                	mv	a5,a0
    80002116:	07a1                	addi	a5,a5,8
    80002118:	85be                	mv	a1,a5
    8000211a:	8526                	mv	a0,s1
    8000211c:	00000097          	auipc	ra,0x0
    80002120:	504080e7          	jalr	1284(ra) # 80002620 <swtch>
  mycpu()->intena = intena;
    80002124:	fffff097          	auipc	ra,0xfffff
    80002128:	4a2080e7          	jalr	1186(ra) # 800015c6 <mycpu>
    8000212c:	872a                	mv	a4,a0
    8000212e:	fd442783          	lw	a5,-44(s0)
    80002132:	df7c                	sw	a5,124(a4)
}
    80002134:	0001                	nop
    80002136:	70a2                	ld	ra,40(sp)
    80002138:	7402                	ld	s0,32(sp)
    8000213a:	64e2                	ld	s1,24(sp)
    8000213c:	6145                	addi	sp,sp,48
    8000213e:	8082                	ret

0000000080002140 <yield>:

// Give up the CPU for one scheduling round.
void
yield(void)
{
    80002140:	1101                	addi	sp,sp,-32
    80002142:	ec06                	sd	ra,24(sp)
    80002144:	e822                	sd	s0,16(sp)
    80002146:	1000                	addi	s0,sp,32
  struct proc *p = myproc();
    80002148:	fffff097          	auipc	ra,0xfffff
    8000214c:	4b8080e7          	jalr	1208(ra) # 80001600 <myproc>
    80002150:	fea43423          	sd	a0,-24(s0)
  acquire(&p->lock);
    80002154:	fe843783          	ld	a5,-24(s0)
    80002158:	853e                	mv	a0,a5
    8000215a:	00007097          	auipc	ra,0x7
    8000215e:	224080e7          	jalr	548(ra) # 8000937e <acquire>
  p->state = RUNNABLE;
    80002162:	fe843783          	ld	a5,-24(s0)
    80002166:	470d                	li	a4,3
    80002168:	cf98                	sw	a4,24(a5)
  sched();
    8000216a:	00000097          	auipc	ra,0x0
    8000216e:	ef4080e7          	jalr	-268(ra) # 8000205e <sched>
  release(&p->lock);
    80002172:	fe843783          	ld	a5,-24(s0)
    80002176:	853e                	mv	a0,a5
    80002178:	00007097          	auipc	ra,0x7
    8000217c:	26a080e7          	jalr	618(ra) # 800093e2 <release>
}
    80002180:	0001                	nop
    80002182:	60e2                	ld	ra,24(sp)
    80002184:	6442                	ld	s0,16(sp)
    80002186:	6105                	addi	sp,sp,32
    80002188:	8082                	ret

000000008000218a <forkret>:

// A fork child's very first scheduling by scheduler()
// will swtch to forkret.
void
forkret(void)
{
    8000218a:	1141                	addi	sp,sp,-16
    8000218c:	e406                	sd	ra,8(sp)
    8000218e:	e022                	sd	s0,0(sp)
    80002190:	0800                	addi	s0,sp,16
  static int first = 1;

  // Still holding p->lock from scheduler.
  release(&myproc()->lock);
    80002192:	fffff097          	auipc	ra,0xfffff
    80002196:	46e080e7          	jalr	1134(ra) # 80001600 <myproc>
    8000219a:	87aa                	mv	a5,a0
    8000219c:	853e                	mv	a0,a5
    8000219e:	00007097          	auipc	ra,0x7
    800021a2:	244080e7          	jalr	580(ra) # 800093e2 <release>

  if (first) {
    800021a6:	00009797          	auipc	a5,0x9
    800021aa:	68e78793          	addi	a5,a5,1678 # 8000b834 <first.1>
    800021ae:	439c                	lw	a5,0(a5)
    800021b0:	cf81                	beqz	a5,800021c8 <forkret+0x3e>
    // File system initialization must be run in the context of a
    // regular process (e.g., because it calls sleep), and thus cannot
    // be run from main().
    first = 0;
    800021b2:	00009797          	auipc	a5,0x9
    800021b6:	68278793          	addi	a5,a5,1666 # 8000b834 <first.1>
    800021ba:	0007a023          	sw	zero,0(a5)
    fsinit(ROOTDEV);
    800021be:	4505                	li	a0,1
    800021c0:	00001097          	auipc	ra,0x1
    800021c4:	642080e7          	jalr	1602(ra) # 80003802 <fsinit>
  }

  usertrapret();
    800021c8:	00001097          	auipc	ra,0x1
    800021cc:	80a080e7          	jalr	-2038(ra) # 800029d2 <usertrapret>
}
    800021d0:	0001                	nop
    800021d2:	60a2                	ld	ra,8(sp)
    800021d4:	6402                	ld	s0,0(sp)
    800021d6:	0141                	addi	sp,sp,16
    800021d8:	8082                	ret

00000000800021da <sleep>:

// Atomically release lock and sleep on chan.
// Reacquires lock when awakened.
void
sleep(void *chan, struct spinlock *lk)
{
    800021da:	7179                	addi	sp,sp,-48
    800021dc:	f406                	sd	ra,40(sp)
    800021de:	f022                	sd	s0,32(sp)
    800021e0:	1800                	addi	s0,sp,48
    800021e2:	fca43c23          	sd	a0,-40(s0)
    800021e6:	fcb43823          	sd	a1,-48(s0)
  struct proc *p = myproc();
    800021ea:	fffff097          	auipc	ra,0xfffff
    800021ee:	416080e7          	jalr	1046(ra) # 80001600 <myproc>
    800021f2:	fea43423          	sd	a0,-24(s0)
  // Once we hold p->lock, we can be
  // guaranteed that we won't miss any wakeup
  // (wakeup locks p->lock),
  // so it's okay to release lk.

  acquire(&p->lock);  //DOC: sleeplock1
    800021f6:	fe843783          	ld	a5,-24(s0)
    800021fa:	853e                	mv	a0,a5
    800021fc:	00007097          	auipc	ra,0x7
    80002200:	182080e7          	jalr	386(ra) # 8000937e <acquire>
  release(lk);
    80002204:	fd043503          	ld	a0,-48(s0)
    80002208:	00007097          	auipc	ra,0x7
    8000220c:	1da080e7          	jalr	474(ra) # 800093e2 <release>

  // Go to sleep.
  p->chan = chan;
    80002210:	fe843783          	ld	a5,-24(s0)
    80002214:	fd843703          	ld	a4,-40(s0)
    80002218:	f398                	sd	a4,32(a5)
  p->state = SLEEPING;
    8000221a:	fe843783          	ld	a5,-24(s0)
    8000221e:	4709                	li	a4,2
    80002220:	cf98                	sw	a4,24(a5)

  sched();
    80002222:	00000097          	auipc	ra,0x0
    80002226:	e3c080e7          	jalr	-452(ra) # 8000205e <sched>

  // Tidy up.
  p->chan = 0;
    8000222a:	fe843783          	ld	a5,-24(s0)
    8000222e:	0207b023          	sd	zero,32(a5)

  // Reacquire original lock.
  release(&p->lock);
    80002232:	fe843783          	ld	a5,-24(s0)
    80002236:	853e                	mv	a0,a5
    80002238:	00007097          	auipc	ra,0x7
    8000223c:	1aa080e7          	jalr	426(ra) # 800093e2 <release>
  acquire(lk);
    80002240:	fd043503          	ld	a0,-48(s0)
    80002244:	00007097          	auipc	ra,0x7
    80002248:	13a080e7          	jalr	314(ra) # 8000937e <acquire>
}
    8000224c:	0001                	nop
    8000224e:	70a2                	ld	ra,40(sp)
    80002250:	7402                	ld	s0,32(sp)
    80002252:	6145                	addi	sp,sp,48
    80002254:	8082                	ret

0000000080002256 <wakeup>:

// Wake up all processes sleeping on chan.
// Must be called without any p->lock.
void
wakeup(void *chan)
{
    80002256:	7179                	addi	sp,sp,-48
    80002258:	f406                	sd	ra,40(sp)
    8000225a:	f022                	sd	s0,32(sp)
    8000225c:	1800                	addi	s0,sp,48
    8000225e:	fca43c23          	sd	a0,-40(s0)
  struct proc *p;

  for(p = proc; p < &proc[NPROC]; p++) {
    80002262:	0000a797          	auipc	a5,0xa
    80002266:	c3678793          	addi	a5,a5,-970 # 8000be98 <proc>
    8000226a:	fef43423          	sd	a5,-24(s0)
    8000226e:	a085                	j	800022ce <wakeup+0x78>
    if(p != myproc()){
    80002270:	fffff097          	auipc	ra,0xfffff
    80002274:	390080e7          	jalr	912(ra) # 80001600 <myproc>
    80002278:	872a                	mv	a4,a0
    8000227a:	fe843783          	ld	a5,-24(s0)
    8000227e:	04e78263          	beq	a5,a4,800022c2 <wakeup+0x6c>
      acquire(&p->lock);
    80002282:	fe843783          	ld	a5,-24(s0)
    80002286:	853e                	mv	a0,a5
    80002288:	00007097          	auipc	ra,0x7
    8000228c:	0f6080e7          	jalr	246(ra) # 8000937e <acquire>
      if(p->state == SLEEPING && p->chan == chan) {
    80002290:	fe843783          	ld	a5,-24(s0)
    80002294:	4f9c                	lw	a5,24(a5)
    80002296:	873e                	mv	a4,a5
    80002298:	4789                	li	a5,2
    8000229a:	00f71d63          	bne	a4,a5,800022b4 <wakeup+0x5e>
    8000229e:	fe843783          	ld	a5,-24(s0)
    800022a2:	739c                	ld	a5,32(a5)
    800022a4:	fd843703          	ld	a4,-40(s0)
    800022a8:	00f71663          	bne	a4,a5,800022b4 <wakeup+0x5e>
        p->state = RUNNABLE;
    800022ac:	fe843783          	ld	a5,-24(s0)
    800022b0:	470d                	li	a4,3
    800022b2:	cf98                	sw	a4,24(a5)
      }
      release(&p->lock);
    800022b4:	fe843783          	ld	a5,-24(s0)
    800022b8:	853e                	mv	a0,a5
    800022ba:	00007097          	auipc	ra,0x7
    800022be:	128080e7          	jalr	296(ra) # 800093e2 <release>
  for(p = proc; p < &proc[NPROC]; p++) {
    800022c2:	fe843783          	ld	a5,-24(s0)
    800022c6:	17078793          	addi	a5,a5,368
    800022ca:	fef43423          	sd	a5,-24(s0)
    800022ce:	fe843703          	ld	a4,-24(s0)
    800022d2:	0000f797          	auipc	a5,0xf
    800022d6:	7c678793          	addi	a5,a5,1990 # 80011a98 <pid_lock>
    800022da:	f8f76be3          	bltu	a4,a5,80002270 <wakeup+0x1a>
    }
  }
}
    800022de:	0001                	nop
    800022e0:	0001                	nop
    800022e2:	70a2                	ld	ra,40(sp)
    800022e4:	7402                	ld	s0,32(sp)
    800022e6:	6145                	addi	sp,sp,48
    800022e8:	8082                	ret

00000000800022ea <kill>:
// Kill the process with the given pid.
// The victim won't exit until it tries to return
// to user space (see usertrap() in trap.c).
int
kill(int pid)
{
    800022ea:	7179                	addi	sp,sp,-48
    800022ec:	f406                	sd	ra,40(sp)
    800022ee:	f022                	sd	s0,32(sp)
    800022f0:	1800                	addi	s0,sp,48
    800022f2:	87aa                	mv	a5,a0
    800022f4:	fcf42e23          	sw	a5,-36(s0)
  struct proc *p;

  for(p = proc; p < &proc[NPROC]; p++){
    800022f8:	0000a797          	auipc	a5,0xa
    800022fc:	ba078793          	addi	a5,a5,-1120 # 8000be98 <proc>
    80002300:	fef43423          	sd	a5,-24(s0)
    80002304:	a0ad                	j	8000236e <kill+0x84>
    acquire(&p->lock);
    80002306:	fe843783          	ld	a5,-24(s0)
    8000230a:	853e                	mv	a0,a5
    8000230c:	00007097          	auipc	ra,0x7
    80002310:	072080e7          	jalr	114(ra) # 8000937e <acquire>
    if(p->pid == pid){
    80002314:	fe843783          	ld	a5,-24(s0)
    80002318:	5b98                	lw	a4,48(a5)
    8000231a:	fdc42783          	lw	a5,-36(s0)
    8000231e:	2781                	sext.w	a5,a5
    80002320:	02e79a63          	bne	a5,a4,80002354 <kill+0x6a>
      p->killed = 1;
    80002324:	fe843783          	ld	a5,-24(s0)
    80002328:	4705                	li	a4,1
    8000232a:	d798                	sw	a4,40(a5)
      if(p->state == SLEEPING){
    8000232c:	fe843783          	ld	a5,-24(s0)
    80002330:	4f9c                	lw	a5,24(a5)
    80002332:	873e                	mv	a4,a5
    80002334:	4789                	li	a5,2
    80002336:	00f71663          	bne	a4,a5,80002342 <kill+0x58>
        // Wake process from sleep().
        p->state = RUNNABLE;
    8000233a:	fe843783          	ld	a5,-24(s0)
    8000233e:	470d                	li	a4,3
    80002340:	cf98                	sw	a4,24(a5)
      }
      release(&p->lock);
    80002342:	fe843783          	ld	a5,-24(s0)
    80002346:	853e                	mv	a0,a5
    80002348:	00007097          	auipc	ra,0x7
    8000234c:	09a080e7          	jalr	154(ra) # 800093e2 <release>
      return 0;
    80002350:	4781                	li	a5,0
    80002352:	a03d                	j	80002380 <kill+0x96>
    }
    release(&p->lock);
    80002354:	fe843783          	ld	a5,-24(s0)
    80002358:	853e                	mv	a0,a5
    8000235a:	00007097          	auipc	ra,0x7
    8000235e:	088080e7          	jalr	136(ra) # 800093e2 <release>
  for(p = proc; p < &proc[NPROC]; p++){
    80002362:	fe843783          	ld	a5,-24(s0)
    80002366:	17078793          	addi	a5,a5,368
    8000236a:	fef43423          	sd	a5,-24(s0)
    8000236e:	fe843703          	ld	a4,-24(s0)
    80002372:	0000f797          	auipc	a5,0xf
    80002376:	72678793          	addi	a5,a5,1830 # 80011a98 <pid_lock>
    8000237a:	f8f766e3          	bltu	a4,a5,80002306 <kill+0x1c>
  }
  return -1;
    8000237e:	57fd                	li	a5,-1
}
    80002380:	853e                	mv	a0,a5
    80002382:	70a2                	ld	ra,40(sp)
    80002384:	7402                	ld	s0,32(sp)
    80002386:	6145                	addi	sp,sp,48
    80002388:	8082                	ret

000000008000238a <setkilled>:

void
setkilled(struct proc *p)
{
    8000238a:	1101                	addi	sp,sp,-32
    8000238c:	ec06                	sd	ra,24(sp)
    8000238e:	e822                	sd	s0,16(sp)
    80002390:	1000                	addi	s0,sp,32
    80002392:	fea43423          	sd	a0,-24(s0)
  acquire(&p->lock);
    80002396:	fe843783          	ld	a5,-24(s0)
    8000239a:	853e                	mv	a0,a5
    8000239c:	00007097          	auipc	ra,0x7
    800023a0:	fe2080e7          	jalr	-30(ra) # 8000937e <acquire>
  p->killed = 1;
    800023a4:	fe843783          	ld	a5,-24(s0)
    800023a8:	4705                	li	a4,1
    800023aa:	d798                	sw	a4,40(a5)
  release(&p->lock);
    800023ac:	fe843783          	ld	a5,-24(s0)
    800023b0:	853e                	mv	a0,a5
    800023b2:	00007097          	auipc	ra,0x7
    800023b6:	030080e7          	jalr	48(ra) # 800093e2 <release>
}
    800023ba:	0001                	nop
    800023bc:	60e2                	ld	ra,24(sp)
    800023be:	6442                	ld	s0,16(sp)
    800023c0:	6105                	addi	sp,sp,32
    800023c2:	8082                	ret

00000000800023c4 <killed>:

int
killed(struct proc *p)
{
    800023c4:	7179                	addi	sp,sp,-48
    800023c6:	f406                	sd	ra,40(sp)
    800023c8:	f022                	sd	s0,32(sp)
    800023ca:	1800                	addi	s0,sp,48
    800023cc:	fca43c23          	sd	a0,-40(s0)
  int k;
  
  acquire(&p->lock);
    800023d0:	fd843783          	ld	a5,-40(s0)
    800023d4:	853e                	mv	a0,a5
    800023d6:	00007097          	auipc	ra,0x7
    800023da:	fa8080e7          	jalr	-88(ra) # 8000937e <acquire>
  k = p->killed;
    800023de:	fd843783          	ld	a5,-40(s0)
    800023e2:	579c                	lw	a5,40(a5)
    800023e4:	fef42623          	sw	a5,-20(s0)
  release(&p->lock);
    800023e8:	fd843783          	ld	a5,-40(s0)
    800023ec:	853e                	mv	a0,a5
    800023ee:	00007097          	auipc	ra,0x7
    800023f2:	ff4080e7          	jalr	-12(ra) # 800093e2 <release>
  return k;
    800023f6:	fec42783          	lw	a5,-20(s0)
}
    800023fa:	853e                	mv	a0,a5
    800023fc:	70a2                	ld	ra,40(sp)
    800023fe:	7402                	ld	s0,32(sp)
    80002400:	6145                	addi	sp,sp,48
    80002402:	8082                	ret

0000000080002404 <either_copyout>:
// Copy to either a user address, or kernel address,
// depending on usr_dst.
// Returns 0 on success, -1 on error.
int
either_copyout(int user_dst, uint64 dst, void *src, uint64 len)
{
    80002404:	7139                	addi	sp,sp,-64
    80002406:	fc06                	sd	ra,56(sp)
    80002408:	f822                	sd	s0,48(sp)
    8000240a:	0080                	addi	s0,sp,64
    8000240c:	87aa                	mv	a5,a0
    8000240e:	fcb43823          	sd	a1,-48(s0)
    80002412:	fcc43423          	sd	a2,-56(s0)
    80002416:	fcd43023          	sd	a3,-64(s0)
    8000241a:	fcf42e23          	sw	a5,-36(s0)
  struct proc *p = myproc();
    8000241e:	fffff097          	auipc	ra,0xfffff
    80002422:	1e2080e7          	jalr	482(ra) # 80001600 <myproc>
    80002426:	fea43423          	sd	a0,-24(s0)
  if(user_dst){
    8000242a:	fdc42783          	lw	a5,-36(s0)
    8000242e:	2781                	sext.w	a5,a5
    80002430:	c38d                	beqz	a5,80002452 <either_copyout+0x4e>
    return copyout(p->pagetable, dst, src, len);
    80002432:	fe843783          	ld	a5,-24(s0)
    80002436:	6bbc                	ld	a5,80(a5)
    80002438:	fc043683          	ld	a3,-64(s0)
    8000243c:	fc843603          	ld	a2,-56(s0)
    80002440:	fd043583          	ld	a1,-48(s0)
    80002444:	853e                	mv	a0,a5
    80002446:	fffff097          	auipc	ra,0xfffff
    8000244a:	c84080e7          	jalr	-892(ra) # 800010ca <copyout>
    8000244e:	87aa                	mv	a5,a0
    80002450:	a839                	j	8000246e <either_copyout+0x6a>
  } else {
    memmove((char *)dst, src, len);
    80002452:	fd043783          	ld	a5,-48(s0)
    80002456:	fc043703          	ld	a4,-64(s0)
    8000245a:	2701                	sext.w	a4,a4
    8000245c:	863a                	mv	a2,a4
    8000245e:	fc843583          	ld	a1,-56(s0)
    80002462:	853e                	mv	a0,a5
    80002464:	ffffe097          	auipc	ra,0xffffe
    80002468:	e8c080e7          	jalr	-372(ra) # 800002f0 <memmove>
    return 0;
    8000246c:	4781                	li	a5,0
  }
}
    8000246e:	853e                	mv	a0,a5
    80002470:	70e2                	ld	ra,56(sp)
    80002472:	7442                	ld	s0,48(sp)
    80002474:	6121                	addi	sp,sp,64
    80002476:	8082                	ret

0000000080002478 <either_copyin>:
// Copy from either a user address, or kernel address,
// depending on usr_src.
// Returns 0 on success, -1 on error.
int
either_copyin(void *dst, int user_src, uint64 src, uint64 len)
{
    80002478:	7139                	addi	sp,sp,-64
    8000247a:	fc06                	sd	ra,56(sp)
    8000247c:	f822                	sd	s0,48(sp)
    8000247e:	0080                	addi	s0,sp,64
    80002480:	fca43c23          	sd	a0,-40(s0)
    80002484:	87ae                	mv	a5,a1
    80002486:	fcc43423          	sd	a2,-56(s0)
    8000248a:	fcd43023          	sd	a3,-64(s0)
    8000248e:	fcf42a23          	sw	a5,-44(s0)
  struct proc *p = myproc();
    80002492:	fffff097          	auipc	ra,0xfffff
    80002496:	16e080e7          	jalr	366(ra) # 80001600 <myproc>
    8000249a:	fea43423          	sd	a0,-24(s0)
  if(user_src){
    8000249e:	fd442783          	lw	a5,-44(s0)
    800024a2:	2781                	sext.w	a5,a5
    800024a4:	c38d                	beqz	a5,800024c6 <either_copyin+0x4e>
    return copyin(p->pagetable, dst, src, len);
    800024a6:	fe843783          	ld	a5,-24(s0)
    800024aa:	6bbc                	ld	a5,80(a5)
    800024ac:	fc043683          	ld	a3,-64(s0)
    800024b0:	fc843603          	ld	a2,-56(s0)
    800024b4:	fd843583          	ld	a1,-40(s0)
    800024b8:	853e                	mv	a0,a5
    800024ba:	fffff097          	auipc	ra,0xfffff
    800024be:	cde080e7          	jalr	-802(ra) # 80001198 <copyin>
    800024c2:	87aa                	mv	a5,a0
    800024c4:	a839                	j	800024e2 <either_copyin+0x6a>
  } else {
    memmove(dst, (char*)src, len);
    800024c6:	fc843783          	ld	a5,-56(s0)
    800024ca:	fc043703          	ld	a4,-64(s0)
    800024ce:	2701                	sext.w	a4,a4
    800024d0:	863a                	mv	a2,a4
    800024d2:	85be                	mv	a1,a5
    800024d4:	fd843503          	ld	a0,-40(s0)
    800024d8:	ffffe097          	auipc	ra,0xffffe
    800024dc:	e18080e7          	jalr	-488(ra) # 800002f0 <memmove>
    return 0;
    800024e0:	4781                	li	a5,0
  }
}
    800024e2:	853e                	mv	a0,a5
    800024e4:	70e2                	ld	ra,56(sp)
    800024e6:	7442                	ld	s0,48(sp)
    800024e8:	6121                	addi	sp,sp,64
    800024ea:	8082                	ret

00000000800024ec <procdump>:
// Print a process listing to console.  For debugging.
// Runs when user types ^P on console.
// No lock to avoid wedging a stuck machine further.
void
procdump(void)
{
    800024ec:	1101                	addi	sp,sp,-32
    800024ee:	ec06                	sd	ra,24(sp)
    800024f0:	e822                	sd	s0,16(sp)
    800024f2:	1000                	addi	s0,sp,32
  [ZOMBIE]    "zombie"
  };
  struct proc *p;
  char *state;

  printf("\n");
    800024f4:	00009517          	auipc	a0,0x9
    800024f8:	d0450513          	addi	a0,a0,-764 # 8000b1f8 <etext+0x1f8>
    800024fc:	00006097          	auipc	ra,0x6
    80002500:	7e4080e7          	jalr	2020(ra) # 80008ce0 <printf>
  for(p = proc; p < &proc[NPROC]; p++){
    80002504:	0000a797          	auipc	a5,0xa
    80002508:	99478793          	addi	a5,a5,-1644 # 8000be98 <proc>
    8000250c:	fef43423          	sd	a5,-24(s0)
    80002510:	a04d                	j	800025b2 <procdump+0xc6>
    if(p->state == UNUSED)
    80002512:	fe843783          	ld	a5,-24(s0)
    80002516:	4f9c                	lw	a5,24(a5)
    80002518:	c7d1                	beqz	a5,800025a4 <procdump+0xb8>
      continue;
    if(p->state >= 0 && p->state < NELEM(states) && states[p->state])
    8000251a:	fe843783          	ld	a5,-24(s0)
    8000251e:	4f9c                	lw	a5,24(a5)
    80002520:	873e                	mv	a4,a5
    80002522:	4795                	li	a5,5
    80002524:	02e7ee63          	bltu	a5,a4,80002560 <procdump+0x74>
    80002528:	fe843783          	ld	a5,-24(s0)
    8000252c:	4f9c                	lw	a5,24(a5)
    8000252e:	00009717          	auipc	a4,0x9
    80002532:	34a70713          	addi	a4,a4,842 # 8000b878 <states.0>
    80002536:	1782                	slli	a5,a5,0x20
    80002538:	9381                	srli	a5,a5,0x20
    8000253a:	078e                	slli	a5,a5,0x3
    8000253c:	97ba                	add	a5,a5,a4
    8000253e:	639c                	ld	a5,0(a5)
    80002540:	c385                	beqz	a5,80002560 <procdump+0x74>
      state = states[p->state];
    80002542:	fe843783          	ld	a5,-24(s0)
    80002546:	4f9c                	lw	a5,24(a5)
    80002548:	00009717          	auipc	a4,0x9
    8000254c:	33070713          	addi	a4,a4,816 # 8000b878 <states.0>
    80002550:	1782                	slli	a5,a5,0x20
    80002552:	9381                	srli	a5,a5,0x20
    80002554:	078e                	slli	a5,a5,0x3
    80002556:	97ba                	add	a5,a5,a4
    80002558:	639c                	ld	a5,0(a5)
    8000255a:	fef43023          	sd	a5,-32(s0)
    8000255e:	a039                	j	8000256c <procdump+0x80>
    else
      state = "???";
    80002560:	00009797          	auipc	a5,0x9
    80002564:	ca078793          	addi	a5,a5,-864 # 8000b200 <etext+0x200>
    80002568:	fef43023          	sd	a5,-32(s0)
    printf("%d %s %s", p->pid, state, p->name);
    8000256c:	fe843783          	ld	a5,-24(s0)
    80002570:	5b98                	lw	a4,48(a5)
    80002572:	fe843783          	ld	a5,-24(s0)
    80002576:	15878793          	addi	a5,a5,344
    8000257a:	86be                	mv	a3,a5
    8000257c:	fe043603          	ld	a2,-32(s0)
    80002580:	85ba                	mv	a1,a4
    80002582:	00009517          	auipc	a0,0x9
    80002586:	c8650513          	addi	a0,a0,-890 # 8000b208 <etext+0x208>
    8000258a:	00006097          	auipc	ra,0x6
    8000258e:	756080e7          	jalr	1878(ra) # 80008ce0 <printf>
    printf("\n");
    80002592:	00009517          	auipc	a0,0x9
    80002596:	c6650513          	addi	a0,a0,-922 # 8000b1f8 <etext+0x1f8>
    8000259a:	00006097          	auipc	ra,0x6
    8000259e:	746080e7          	jalr	1862(ra) # 80008ce0 <printf>
    800025a2:	a011                	j	800025a6 <procdump+0xba>
      continue;
    800025a4:	0001                	nop
  for(p = proc; p < &proc[NPROC]; p++){
    800025a6:	fe843783          	ld	a5,-24(s0)
    800025aa:	17078793          	addi	a5,a5,368
    800025ae:	fef43423          	sd	a5,-24(s0)
    800025b2:	fe843703          	ld	a4,-24(s0)
    800025b6:	0000f797          	auipc	a5,0xf
    800025ba:	4e278793          	addi	a5,a5,1250 # 80011a98 <pid_lock>
    800025be:	f4f76ae3          	bltu	a4,a5,80002512 <procdump+0x26>
  }
}
    800025c2:	0001                	nop
    800025c4:	0001                	nop
    800025c6:	60e2                	ld	ra,24(sp)
    800025c8:	6442                	ld	s0,16(sp)
    800025ca:	6105                	addi	sp,sp,32
    800025cc:	8082                	ret

00000000800025ce <get_nproc>:

int
get_nproc() {
    800025ce:	1101                	addi	sp,sp,-32
    800025d0:	ec22                	sd	s0,24(sp)
    800025d2:	1000                	addi	s0,sp,32
  int nproc = 0;
    800025d4:	fe042623          	sw	zero,-20(s0)
  for (struct proc *p = proc; p < &proc[NPROC]; p++) {
    800025d8:	0000a797          	auipc	a5,0xa
    800025dc:	8c078793          	addi	a5,a5,-1856 # 8000be98 <proc>
    800025e0:	fef43023          	sd	a5,-32(s0)
    800025e4:	a005                	j	80002604 <get_nproc+0x36>
    if (p->state != UNUSED) {
    800025e6:	fe043783          	ld	a5,-32(s0)
    800025ea:	4f9c                	lw	a5,24(a5)
    800025ec:	c791                	beqz	a5,800025f8 <get_nproc+0x2a>
      nproc++;
    800025ee:	fec42783          	lw	a5,-20(s0)
    800025f2:	2785                	addiw	a5,a5,1
    800025f4:	fef42623          	sw	a5,-20(s0)
  for (struct proc *p = proc; p < &proc[NPROC]; p++) {
    800025f8:	fe043783          	ld	a5,-32(s0)
    800025fc:	17078793          	addi	a5,a5,368
    80002600:	fef43023          	sd	a5,-32(s0)
    80002604:	fe043703          	ld	a4,-32(s0)
    80002608:	0000f797          	auipc	a5,0xf
    8000260c:	49078793          	addi	a5,a5,1168 # 80011a98 <pid_lock>
    80002610:	fcf76be3          	bltu	a4,a5,800025e6 <get_nproc+0x18>
    }
  }
  return nproc;
    80002614:	fec42783          	lw	a5,-20(s0)
}
    80002618:	853e                	mv	a0,a5
    8000261a:	6462                	ld	s0,24(sp)
    8000261c:	6105                	addi	sp,sp,32
    8000261e:	8082                	ret

0000000080002620 <swtch>:
    80002620:	00153023          	sd	ra,0(a0)
    80002624:	00253423          	sd	sp,8(a0)
    80002628:	e900                	sd	s0,16(a0)
    8000262a:	ed04                	sd	s1,24(a0)
    8000262c:	03253023          	sd	s2,32(a0)
    80002630:	03353423          	sd	s3,40(a0)
    80002634:	03453823          	sd	s4,48(a0)
    80002638:	03553c23          	sd	s5,56(a0)
    8000263c:	05653023          	sd	s6,64(a0)
    80002640:	05753423          	sd	s7,72(a0)
    80002644:	05853823          	sd	s8,80(a0)
    80002648:	05953c23          	sd	s9,88(a0)
    8000264c:	07a53023          	sd	s10,96(a0)
    80002650:	07b53423          	sd	s11,104(a0)
    80002654:	0005b083          	ld	ra,0(a1)
    80002658:	0085b103          	ld	sp,8(a1)
    8000265c:	6980                	ld	s0,16(a1)
    8000265e:	6d84                	ld	s1,24(a1)
    80002660:	0205b903          	ld	s2,32(a1)
    80002664:	0285b983          	ld	s3,40(a1)
    80002668:	0305ba03          	ld	s4,48(a1)
    8000266c:	0385ba83          	ld	s5,56(a1)
    80002670:	0405bb03          	ld	s6,64(a1)
    80002674:	0485bb83          	ld	s7,72(a1)
    80002678:	0505bc03          	ld	s8,80(a1)
    8000267c:	0585bc83          	ld	s9,88(a1)
    80002680:	0605bd03          	ld	s10,96(a1)
    80002684:	0685bd83          	ld	s11,104(a1)
    80002688:	8082                	ret

000000008000268a <r_sstatus>:
{
    8000268a:	1101                	addi	sp,sp,-32
    8000268c:	ec22                	sd	s0,24(sp)
    8000268e:	1000                	addi	s0,sp,32
  asm volatile("csrr %0, sstatus" : "=r" (x) );
    80002690:	100027f3          	csrr	a5,sstatus
    80002694:	fef43423          	sd	a5,-24(s0)
  return x;
    80002698:	fe843783          	ld	a5,-24(s0)
}
    8000269c:	853e                	mv	a0,a5
    8000269e:	6462                	ld	s0,24(sp)
    800026a0:	6105                	addi	sp,sp,32
    800026a2:	8082                	ret

00000000800026a4 <w_sstatus>:
{
    800026a4:	1101                	addi	sp,sp,-32
    800026a6:	ec22                	sd	s0,24(sp)
    800026a8:	1000                	addi	s0,sp,32
    800026aa:	fea43423          	sd	a0,-24(s0)
  asm volatile("csrw sstatus, %0" : : "r" (x));
    800026ae:	fe843783          	ld	a5,-24(s0)
    800026b2:	10079073          	csrw	sstatus,a5
}
    800026b6:	0001                	nop
    800026b8:	6462                	ld	s0,24(sp)
    800026ba:	6105                	addi	sp,sp,32
    800026bc:	8082                	ret

00000000800026be <r_sip>:
{
    800026be:	1101                	addi	sp,sp,-32
    800026c0:	ec22                	sd	s0,24(sp)
    800026c2:	1000                	addi	s0,sp,32
  asm volatile("csrr %0, sip" : "=r" (x) );
    800026c4:	144027f3          	csrr	a5,sip
    800026c8:	fef43423          	sd	a5,-24(s0)
  return x;
    800026cc:	fe843783          	ld	a5,-24(s0)
}
    800026d0:	853e                	mv	a0,a5
    800026d2:	6462                	ld	s0,24(sp)
    800026d4:	6105                	addi	sp,sp,32
    800026d6:	8082                	ret

00000000800026d8 <w_sip>:
{
    800026d8:	1101                	addi	sp,sp,-32
    800026da:	ec22                	sd	s0,24(sp)
    800026dc:	1000                	addi	s0,sp,32
    800026de:	fea43423          	sd	a0,-24(s0)
  asm volatile("csrw sip, %0" : : "r" (x));
    800026e2:	fe843783          	ld	a5,-24(s0)
    800026e6:	14479073          	csrw	sip,a5
}
    800026ea:	0001                	nop
    800026ec:	6462                	ld	s0,24(sp)
    800026ee:	6105                	addi	sp,sp,32
    800026f0:	8082                	ret

00000000800026f2 <w_sepc>:
{
    800026f2:	1101                	addi	sp,sp,-32
    800026f4:	ec22                	sd	s0,24(sp)
    800026f6:	1000                	addi	s0,sp,32
    800026f8:	fea43423          	sd	a0,-24(s0)
  asm volatile("csrw sepc, %0" : : "r" (x));
    800026fc:	fe843783          	ld	a5,-24(s0)
    80002700:	14179073          	csrw	sepc,a5
}
    80002704:	0001                	nop
    80002706:	6462                	ld	s0,24(sp)
    80002708:	6105                	addi	sp,sp,32
    8000270a:	8082                	ret

000000008000270c <r_sepc>:
{
    8000270c:	1101                	addi	sp,sp,-32
    8000270e:	ec22                	sd	s0,24(sp)
    80002710:	1000                	addi	s0,sp,32
  asm volatile("csrr %0, sepc" : "=r" (x) );
    80002712:	141027f3          	csrr	a5,sepc
    80002716:	fef43423          	sd	a5,-24(s0)
  return x;
    8000271a:	fe843783          	ld	a5,-24(s0)
}
    8000271e:	853e                	mv	a0,a5
    80002720:	6462                	ld	s0,24(sp)
    80002722:	6105                	addi	sp,sp,32
    80002724:	8082                	ret

0000000080002726 <w_stvec>:
{
    80002726:	1101                	addi	sp,sp,-32
    80002728:	ec22                	sd	s0,24(sp)
    8000272a:	1000                	addi	s0,sp,32
    8000272c:	fea43423          	sd	a0,-24(s0)
  asm volatile("csrw stvec, %0" : : "r" (x));
    80002730:	fe843783          	ld	a5,-24(s0)
    80002734:	10579073          	csrw	stvec,a5
}
    80002738:	0001                	nop
    8000273a:	6462                	ld	s0,24(sp)
    8000273c:	6105                	addi	sp,sp,32
    8000273e:	8082                	ret

0000000080002740 <r_satp>:
{
    80002740:	1101                	addi	sp,sp,-32
    80002742:	ec22                	sd	s0,24(sp)
    80002744:	1000                	addi	s0,sp,32
  asm volatile("csrr %0, satp" : "=r" (x) );
    80002746:	180027f3          	csrr	a5,satp
    8000274a:	fef43423          	sd	a5,-24(s0)
  return x;
    8000274e:	fe843783          	ld	a5,-24(s0)
}
    80002752:	853e                	mv	a0,a5
    80002754:	6462                	ld	s0,24(sp)
    80002756:	6105                	addi	sp,sp,32
    80002758:	8082                	ret

000000008000275a <r_scause>:
{
    8000275a:	1101                	addi	sp,sp,-32
    8000275c:	ec22                	sd	s0,24(sp)
    8000275e:	1000                	addi	s0,sp,32
  asm volatile("csrr %0, scause" : "=r" (x) );
    80002760:	142027f3          	csrr	a5,scause
    80002764:	fef43423          	sd	a5,-24(s0)
  return x;
    80002768:	fe843783          	ld	a5,-24(s0)
}
    8000276c:	853e                	mv	a0,a5
    8000276e:	6462                	ld	s0,24(sp)
    80002770:	6105                	addi	sp,sp,32
    80002772:	8082                	ret

0000000080002774 <r_stval>:
{
    80002774:	1101                	addi	sp,sp,-32
    80002776:	ec22                	sd	s0,24(sp)
    80002778:	1000                	addi	s0,sp,32
  asm volatile("csrr %0, stval" : "=r" (x) );
    8000277a:	143027f3          	csrr	a5,stval
    8000277e:	fef43423          	sd	a5,-24(s0)
  return x;
    80002782:	fe843783          	ld	a5,-24(s0)
}
    80002786:	853e                	mv	a0,a5
    80002788:	6462                	ld	s0,24(sp)
    8000278a:	6105                	addi	sp,sp,32
    8000278c:	8082                	ret

000000008000278e <intr_on>:
{
    8000278e:	1141                	addi	sp,sp,-16
    80002790:	e406                	sd	ra,8(sp)
    80002792:	e022                	sd	s0,0(sp)
    80002794:	0800                	addi	s0,sp,16
  w_sstatus(r_sstatus() | SSTATUS_SIE);
    80002796:	00000097          	auipc	ra,0x0
    8000279a:	ef4080e7          	jalr	-268(ra) # 8000268a <r_sstatus>
    8000279e:	87aa                	mv	a5,a0
    800027a0:	0027e793          	ori	a5,a5,2
    800027a4:	853e                	mv	a0,a5
    800027a6:	00000097          	auipc	ra,0x0
    800027aa:	efe080e7          	jalr	-258(ra) # 800026a4 <w_sstatus>
}
    800027ae:	0001                	nop
    800027b0:	60a2                	ld	ra,8(sp)
    800027b2:	6402                	ld	s0,0(sp)
    800027b4:	0141                	addi	sp,sp,16
    800027b6:	8082                	ret

00000000800027b8 <intr_off>:
{
    800027b8:	1141                	addi	sp,sp,-16
    800027ba:	e406                	sd	ra,8(sp)
    800027bc:	e022                	sd	s0,0(sp)
    800027be:	0800                	addi	s0,sp,16
  w_sstatus(r_sstatus() & ~SSTATUS_SIE);
    800027c0:	00000097          	auipc	ra,0x0
    800027c4:	eca080e7          	jalr	-310(ra) # 8000268a <r_sstatus>
    800027c8:	87aa                	mv	a5,a0
    800027ca:	9bf5                	andi	a5,a5,-3
    800027cc:	853e                	mv	a0,a5
    800027ce:	00000097          	auipc	ra,0x0
    800027d2:	ed6080e7          	jalr	-298(ra) # 800026a4 <w_sstatus>
}
    800027d6:	0001                	nop
    800027d8:	60a2                	ld	ra,8(sp)
    800027da:	6402                	ld	s0,0(sp)
    800027dc:	0141                	addi	sp,sp,16
    800027de:	8082                	ret

00000000800027e0 <intr_get>:
{
    800027e0:	1101                	addi	sp,sp,-32
    800027e2:	ec06                	sd	ra,24(sp)
    800027e4:	e822                	sd	s0,16(sp)
    800027e6:	1000                	addi	s0,sp,32
  uint64 x = r_sstatus();
    800027e8:	00000097          	auipc	ra,0x0
    800027ec:	ea2080e7          	jalr	-350(ra) # 8000268a <r_sstatus>
    800027f0:	fea43423          	sd	a0,-24(s0)
  return (x & SSTATUS_SIE) != 0;
    800027f4:	fe843783          	ld	a5,-24(s0)
    800027f8:	8b89                	andi	a5,a5,2
    800027fa:	00f037b3          	snez	a5,a5
    800027fe:	0ff7f793          	zext.b	a5,a5
    80002802:	2781                	sext.w	a5,a5
}
    80002804:	853e                	mv	a0,a5
    80002806:	60e2                	ld	ra,24(sp)
    80002808:	6442                	ld	s0,16(sp)
    8000280a:	6105                	addi	sp,sp,32
    8000280c:	8082                	ret

000000008000280e <r_tp>:
{
    8000280e:	1101                	addi	sp,sp,-32
    80002810:	ec22                	sd	s0,24(sp)
    80002812:	1000                	addi	s0,sp,32
  asm volatile("mv %0, tp" : "=r" (x) );
    80002814:	8792                	mv	a5,tp
    80002816:	fef43423          	sd	a5,-24(s0)
  return x;
    8000281a:	fe843783          	ld	a5,-24(s0)
}
    8000281e:	853e                	mv	a0,a5
    80002820:	6462                	ld	s0,24(sp)
    80002822:	6105                	addi	sp,sp,32
    80002824:	8082                	ret

0000000080002826 <trapinit>:

extern int devintr();

void
trapinit(void)
{
    80002826:	1141                	addi	sp,sp,-16
    80002828:	e406                	sd	ra,8(sp)
    8000282a:	e022                	sd	s0,0(sp)
    8000282c:	0800                	addi	s0,sp,16
  initlock(&tickslock, "time");
    8000282e:	00009597          	auipc	a1,0x9
    80002832:	a2258593          	addi	a1,a1,-1502 # 8000b250 <etext+0x250>
    80002836:	0000f517          	auipc	a0,0xf
    8000283a:	29250513          	addi	a0,a0,658 # 80011ac8 <tickslock>
    8000283e:	00007097          	auipc	ra,0x7
    80002842:	b10080e7          	jalr	-1264(ra) # 8000934e <initlock>
}
    80002846:	0001                	nop
    80002848:	60a2                	ld	ra,8(sp)
    8000284a:	6402                	ld	s0,0(sp)
    8000284c:	0141                	addi	sp,sp,16
    8000284e:	8082                	ret

0000000080002850 <trapinithart>:

// set up to take exceptions and traps while in the kernel.
void
trapinithart(void)
{
    80002850:	1141                	addi	sp,sp,-16
    80002852:	e406                	sd	ra,8(sp)
    80002854:	e022                	sd	s0,0(sp)
    80002856:	0800                	addi	s0,sp,16
  w_stvec((uint64)kernelvec);
    80002858:	00005797          	auipc	a5,0x5
    8000285c:	e6878793          	addi	a5,a5,-408 # 800076c0 <kernelvec>
    80002860:	853e                	mv	a0,a5
    80002862:	00000097          	auipc	ra,0x0
    80002866:	ec4080e7          	jalr	-316(ra) # 80002726 <w_stvec>
}
    8000286a:	0001                	nop
    8000286c:	60a2                	ld	ra,8(sp)
    8000286e:	6402                	ld	s0,0(sp)
    80002870:	0141                	addi	sp,sp,16
    80002872:	8082                	ret

0000000080002874 <usertrap>:
// handle an interrupt, exception, or system call from user space.
// called from trampoline.S
//
void
usertrap(void)
{
    80002874:	7179                	addi	sp,sp,-48
    80002876:	f406                	sd	ra,40(sp)
    80002878:	f022                	sd	s0,32(sp)
    8000287a:	ec26                	sd	s1,24(sp)
    8000287c:	1800                	addi	s0,sp,48
  int which_dev = 0;
    8000287e:	fc042e23          	sw	zero,-36(s0)

  if((r_sstatus() & SSTATUS_SPP) != 0)
    80002882:	00000097          	auipc	ra,0x0
    80002886:	e08080e7          	jalr	-504(ra) # 8000268a <r_sstatus>
    8000288a:	87aa                	mv	a5,a0
    8000288c:	1007f793          	andi	a5,a5,256
    80002890:	cb89                	beqz	a5,800028a2 <usertrap+0x2e>
    panic("usertrap: not from user mode");
    80002892:	00009517          	auipc	a0,0x9
    80002896:	9c650513          	addi	a0,a0,-1594 # 8000b258 <etext+0x258>
    8000289a:	00006097          	auipc	ra,0x6
    8000289e:	69c080e7          	jalr	1692(ra) # 80008f36 <panic>

  // send interrupts and exceptions to kerneltrap(),
  // since we're now in the kernel.
  w_stvec((uint64)kernelvec);
    800028a2:	00005797          	auipc	a5,0x5
    800028a6:	e1e78793          	addi	a5,a5,-482 # 800076c0 <kernelvec>
    800028aa:	853e                	mv	a0,a5
    800028ac:	00000097          	auipc	ra,0x0
    800028b0:	e7a080e7          	jalr	-390(ra) # 80002726 <w_stvec>

  struct proc *p = myproc();
    800028b4:	fffff097          	auipc	ra,0xfffff
    800028b8:	d4c080e7          	jalr	-692(ra) # 80001600 <myproc>
    800028bc:	fca43823          	sd	a0,-48(s0)
  
  // save user program counter.
  p->trapframe->epc = r_sepc();
    800028c0:	fd043783          	ld	a5,-48(s0)
    800028c4:	6fa4                	ld	s1,88(a5)
    800028c6:	00000097          	auipc	ra,0x0
    800028ca:	e46080e7          	jalr	-442(ra) # 8000270c <r_sepc>
    800028ce:	87aa                	mv	a5,a0
    800028d0:	ec9c                	sd	a5,24(s1)
  
  if(r_scause() == 8){
    800028d2:	00000097          	auipc	ra,0x0
    800028d6:	e88080e7          	jalr	-376(ra) # 8000275a <r_scause>
    800028da:	872a                	mv	a4,a0
    800028dc:	47a1                	li	a5,8
    800028de:	04f71163          	bne	a4,a5,80002920 <usertrap+0xac>
    // system call

    if(killed(p))
    800028e2:	fd043503          	ld	a0,-48(s0)
    800028e6:	00000097          	auipc	ra,0x0
    800028ea:	ade080e7          	jalr	-1314(ra) # 800023c4 <killed>
    800028ee:	87aa                	mv	a5,a0
    800028f0:	c791                	beqz	a5,800028fc <usertrap+0x88>
      exit(-1);
    800028f2:	557d                	li	a0,-1
    800028f4:	fffff097          	auipc	ra,0xfffff
    800028f8:	416080e7          	jalr	1046(ra) # 80001d0a <exit>

    // sepc points to the ecall instruction,
    // but we want to return to the next instruction.
    p->trapframe->epc += 4;
    800028fc:	fd043783          	ld	a5,-48(s0)
    80002900:	6fbc                	ld	a5,88(a5)
    80002902:	6f98                	ld	a4,24(a5)
    80002904:	fd043783          	ld	a5,-48(s0)
    80002908:	6fbc                	ld	a5,88(a5)
    8000290a:	0711                	addi	a4,a4,4
    8000290c:	ef98                	sd	a4,24(a5)

    // an interrupt will change sepc, scause, and sstatus,
    // so enable only now that we're done with those registers.
    intr_on();
    8000290e:	00000097          	auipc	ra,0x0
    80002912:	e80080e7          	jalr	-384(ra) # 8000278e <intr_on>

    syscall();
    80002916:	00000097          	auipc	ra,0x0
    8000291a:	66c080e7          	jalr	1644(ra) # 80002f82 <syscall>
    8000291e:	a885                	j	8000298e <usertrap+0x11a>
  } else if((which_dev = devintr()) != 0){
    80002920:	00000097          	auipc	ra,0x0
    80002924:	34e080e7          	jalr	846(ra) # 80002c6e <devintr>
    80002928:	87aa                	mv	a5,a0
    8000292a:	fcf42e23          	sw	a5,-36(s0)
    8000292e:	fdc42783          	lw	a5,-36(s0)
    80002932:	2781                	sext.w	a5,a5
    80002934:	efa9                	bnez	a5,8000298e <usertrap+0x11a>
    // ok
  } else {
    printf("usertrap(): unexpected scause %p pid=%d\n", r_scause(), p->pid);
    80002936:	00000097          	auipc	ra,0x0
    8000293a:	e24080e7          	jalr	-476(ra) # 8000275a <r_scause>
    8000293e:	872a                	mv	a4,a0
    80002940:	fd043783          	ld	a5,-48(s0)
    80002944:	5b9c                	lw	a5,48(a5)
    80002946:	863e                	mv	a2,a5
    80002948:	85ba                	mv	a1,a4
    8000294a:	00009517          	auipc	a0,0x9
    8000294e:	92e50513          	addi	a0,a0,-1746 # 8000b278 <etext+0x278>
    80002952:	00006097          	auipc	ra,0x6
    80002956:	38e080e7          	jalr	910(ra) # 80008ce0 <printf>
    printf("            sepc=%p stval=%p\n", r_sepc(), r_stval());
    8000295a:	00000097          	auipc	ra,0x0
    8000295e:	db2080e7          	jalr	-590(ra) # 8000270c <r_sepc>
    80002962:	84aa                	mv	s1,a0
    80002964:	00000097          	auipc	ra,0x0
    80002968:	e10080e7          	jalr	-496(ra) # 80002774 <r_stval>
    8000296c:	87aa                	mv	a5,a0
    8000296e:	863e                	mv	a2,a5
    80002970:	85a6                	mv	a1,s1
    80002972:	00009517          	auipc	a0,0x9
    80002976:	93650513          	addi	a0,a0,-1738 # 8000b2a8 <etext+0x2a8>
    8000297a:	00006097          	auipc	ra,0x6
    8000297e:	366080e7          	jalr	870(ra) # 80008ce0 <printf>
    setkilled(p);
    80002982:	fd043503          	ld	a0,-48(s0)
    80002986:	00000097          	auipc	ra,0x0
    8000298a:	a04080e7          	jalr	-1532(ra) # 8000238a <setkilled>
  }

  if(killed(p))
    8000298e:	fd043503          	ld	a0,-48(s0)
    80002992:	00000097          	auipc	ra,0x0
    80002996:	a32080e7          	jalr	-1486(ra) # 800023c4 <killed>
    8000299a:	87aa                	mv	a5,a0
    8000299c:	c791                	beqz	a5,800029a8 <usertrap+0x134>
    exit(-1);
    8000299e:	557d                	li	a0,-1
    800029a0:	fffff097          	auipc	ra,0xfffff
    800029a4:	36a080e7          	jalr	874(ra) # 80001d0a <exit>

  // give up the CPU if this is a timer interrupt.
  if(which_dev == 2)
    800029a8:	fdc42783          	lw	a5,-36(s0)
    800029ac:	0007871b          	sext.w	a4,a5
    800029b0:	4789                	li	a5,2
    800029b2:	00f71663          	bne	a4,a5,800029be <usertrap+0x14a>
    yield();
    800029b6:	fffff097          	auipc	ra,0xfffff
    800029ba:	78a080e7          	jalr	1930(ra) # 80002140 <yield>

  usertrapret();
    800029be:	00000097          	auipc	ra,0x0
    800029c2:	014080e7          	jalr	20(ra) # 800029d2 <usertrapret>
}
    800029c6:	0001                	nop
    800029c8:	70a2                	ld	ra,40(sp)
    800029ca:	7402                	ld	s0,32(sp)
    800029cc:	64e2                	ld	s1,24(sp)
    800029ce:	6145                	addi	sp,sp,48
    800029d0:	8082                	ret

00000000800029d2 <usertrapret>:
//
// return to user space
//
void
usertrapret(void)
{
    800029d2:	715d                	addi	sp,sp,-80
    800029d4:	e486                	sd	ra,72(sp)
    800029d6:	e0a2                	sd	s0,64(sp)
    800029d8:	fc26                	sd	s1,56(sp)
    800029da:	0880                	addi	s0,sp,80
  struct proc *p = myproc();
    800029dc:	fffff097          	auipc	ra,0xfffff
    800029e0:	c24080e7          	jalr	-988(ra) # 80001600 <myproc>
    800029e4:	fca43c23          	sd	a0,-40(s0)

  // we're about to switch the destination of traps from
  // kerneltrap() to usertrap(), so turn off interrupts until
  // we're back in user space, where usertrap() is correct.
  intr_off();
    800029e8:	00000097          	auipc	ra,0x0
    800029ec:	dd0080e7          	jalr	-560(ra) # 800027b8 <intr_off>

  // send syscalls, interrupts, and exceptions to uservec in trampoline.S
  uint64 trampoline_uservec = TRAMPOLINE + (uservec - trampoline);
    800029f0:	00007717          	auipc	a4,0x7
    800029f4:	61070713          	addi	a4,a4,1552 # 8000a000 <_trampoline>
    800029f8:	00007797          	auipc	a5,0x7
    800029fc:	60878793          	addi	a5,a5,1544 # 8000a000 <_trampoline>
    80002a00:	8f1d                	sub	a4,a4,a5
    80002a02:	040007b7          	lui	a5,0x4000
    80002a06:	17fd                	addi	a5,a5,-1 # 3ffffff <_entry-0x7c000001>
    80002a08:	07b2                	slli	a5,a5,0xc
    80002a0a:	97ba                	add	a5,a5,a4
    80002a0c:	fcf43823          	sd	a5,-48(s0)
  w_stvec(trampoline_uservec);
    80002a10:	fd043503          	ld	a0,-48(s0)
    80002a14:	00000097          	auipc	ra,0x0
    80002a18:	d12080e7          	jalr	-750(ra) # 80002726 <w_stvec>

  // set up trapframe values that uservec will need when
  // the process next traps into the kernel.
  p->trapframe->kernel_satp = r_satp();         // kernel page table
    80002a1c:	fd843783          	ld	a5,-40(s0)
    80002a20:	6fa4                	ld	s1,88(a5)
    80002a22:	00000097          	auipc	ra,0x0
    80002a26:	d1e080e7          	jalr	-738(ra) # 80002740 <r_satp>
    80002a2a:	87aa                	mv	a5,a0
    80002a2c:	e09c                	sd	a5,0(s1)
  p->trapframe->kernel_sp = p->kstack + PGSIZE; // process's kernel stack
    80002a2e:	fd843783          	ld	a5,-40(s0)
    80002a32:	63b4                	ld	a3,64(a5)
    80002a34:	fd843783          	ld	a5,-40(s0)
    80002a38:	6fbc                	ld	a5,88(a5)
    80002a3a:	6705                	lui	a4,0x1
    80002a3c:	9736                	add	a4,a4,a3
    80002a3e:	e798                	sd	a4,8(a5)
  p->trapframe->kernel_trap = (uint64)usertrap;
    80002a40:	fd843783          	ld	a5,-40(s0)
    80002a44:	6fbc                	ld	a5,88(a5)
    80002a46:	00000717          	auipc	a4,0x0
    80002a4a:	e2e70713          	addi	a4,a4,-466 # 80002874 <usertrap>
    80002a4e:	eb98                	sd	a4,16(a5)
  p->trapframe->kernel_hartid = r_tp();         // hartid for cpuid()
    80002a50:	fd843783          	ld	a5,-40(s0)
    80002a54:	6fa4                	ld	s1,88(a5)
    80002a56:	00000097          	auipc	ra,0x0
    80002a5a:	db8080e7          	jalr	-584(ra) # 8000280e <r_tp>
    80002a5e:	87aa                	mv	a5,a0
    80002a60:	f09c                	sd	a5,32(s1)

  // set up the registers that trampoline.S's sret will use
  // to get to user space.
  
  // set S Previous Privilege mode to User.
  unsigned long x = r_sstatus();
    80002a62:	00000097          	auipc	ra,0x0
    80002a66:	c28080e7          	jalr	-984(ra) # 8000268a <r_sstatus>
    80002a6a:	fca43423          	sd	a0,-56(s0)
  x &= ~SSTATUS_SPP; // clear SPP to 0 for user mode
    80002a6e:	fc843783          	ld	a5,-56(s0)
    80002a72:	eff7f793          	andi	a5,a5,-257
    80002a76:	fcf43423          	sd	a5,-56(s0)
  x |= SSTATUS_SPIE; // enable interrupts in user mode
    80002a7a:	fc843783          	ld	a5,-56(s0)
    80002a7e:	0207e793          	ori	a5,a5,32
    80002a82:	fcf43423          	sd	a5,-56(s0)
  w_sstatus(x);
    80002a86:	fc843503          	ld	a0,-56(s0)
    80002a8a:	00000097          	auipc	ra,0x0
    80002a8e:	c1a080e7          	jalr	-998(ra) # 800026a4 <w_sstatus>

  // set S Exception Program Counter to the saved user pc.
  w_sepc(p->trapframe->epc);
    80002a92:	fd843783          	ld	a5,-40(s0)
    80002a96:	6fbc                	ld	a5,88(a5)
    80002a98:	6f9c                	ld	a5,24(a5)
    80002a9a:	853e                	mv	a0,a5
    80002a9c:	00000097          	auipc	ra,0x0
    80002aa0:	c56080e7          	jalr	-938(ra) # 800026f2 <w_sepc>

  // tell trampoline.S the user page table to switch to.
  uint64 satp = MAKE_SATP(p->pagetable);
    80002aa4:	fd843783          	ld	a5,-40(s0)
    80002aa8:	6bbc                	ld	a5,80(a5)
    80002aaa:	00c7d713          	srli	a4,a5,0xc
    80002aae:	57fd                	li	a5,-1
    80002ab0:	17fe                	slli	a5,a5,0x3f
    80002ab2:	8fd9                	or	a5,a5,a4
    80002ab4:	fcf43023          	sd	a5,-64(s0)

  // jump to userret in trampoline.S at the top of memory, which 
  // switches to the user page table, restores user registers,
  // and switches to user mode with sret.
  uint64 trampoline_userret = TRAMPOLINE + (userret - trampoline);
    80002ab8:	00007717          	auipc	a4,0x7
    80002abc:	5e470713          	addi	a4,a4,1508 # 8000a09c <userret>
    80002ac0:	00007797          	auipc	a5,0x7
    80002ac4:	54078793          	addi	a5,a5,1344 # 8000a000 <_trampoline>
    80002ac8:	8f1d                	sub	a4,a4,a5
    80002aca:	040007b7          	lui	a5,0x4000
    80002ace:	17fd                	addi	a5,a5,-1 # 3ffffff <_entry-0x7c000001>
    80002ad0:	07b2                	slli	a5,a5,0xc
    80002ad2:	97ba                	add	a5,a5,a4
    80002ad4:	faf43c23          	sd	a5,-72(s0)
  ((void (*)(uint64))trampoline_userret)(satp);
    80002ad8:	fb843783          	ld	a5,-72(s0)
    80002adc:	fc043503          	ld	a0,-64(s0)
    80002ae0:	9782                	jalr	a5
}
    80002ae2:	0001                	nop
    80002ae4:	60a6                	ld	ra,72(sp)
    80002ae6:	6406                	ld	s0,64(sp)
    80002ae8:	74e2                	ld	s1,56(sp)
    80002aea:	6161                	addi	sp,sp,80
    80002aec:	8082                	ret

0000000080002aee <kerneltrap>:

// interrupts and exceptions from kernel code go here via kernelvec,
// on whatever the current kernel stack is.
void 
kerneltrap()
{
    80002aee:	7139                	addi	sp,sp,-64
    80002af0:	fc06                	sd	ra,56(sp)
    80002af2:	f822                	sd	s0,48(sp)
    80002af4:	f426                	sd	s1,40(sp)
    80002af6:	0080                	addi	s0,sp,64
  int which_dev = 0;
    80002af8:	fc042e23          	sw	zero,-36(s0)
  uint64 sepc = r_sepc();
    80002afc:	00000097          	auipc	ra,0x0
    80002b00:	c10080e7          	jalr	-1008(ra) # 8000270c <r_sepc>
    80002b04:	fca43823          	sd	a0,-48(s0)
  uint64 sstatus = r_sstatus();
    80002b08:	00000097          	auipc	ra,0x0
    80002b0c:	b82080e7          	jalr	-1150(ra) # 8000268a <r_sstatus>
    80002b10:	fca43423          	sd	a0,-56(s0)
  uint64 scause = r_scause();
    80002b14:	00000097          	auipc	ra,0x0
    80002b18:	c46080e7          	jalr	-954(ra) # 8000275a <r_scause>
    80002b1c:	fca43023          	sd	a0,-64(s0)
  
  if((sstatus & SSTATUS_SPP) == 0)
    80002b20:	fc843783          	ld	a5,-56(s0)
    80002b24:	1007f793          	andi	a5,a5,256
    80002b28:	eb89                	bnez	a5,80002b3a <kerneltrap+0x4c>
    panic("kerneltrap: not from supervisor mode");
    80002b2a:	00008517          	auipc	a0,0x8
    80002b2e:	79e50513          	addi	a0,a0,1950 # 8000b2c8 <etext+0x2c8>
    80002b32:	00006097          	auipc	ra,0x6
    80002b36:	404080e7          	jalr	1028(ra) # 80008f36 <panic>
  if(intr_get() != 0)
    80002b3a:	00000097          	auipc	ra,0x0
    80002b3e:	ca6080e7          	jalr	-858(ra) # 800027e0 <intr_get>
    80002b42:	87aa                	mv	a5,a0
    80002b44:	cb89                	beqz	a5,80002b56 <kerneltrap+0x68>
    panic("kerneltrap: interrupts enabled");
    80002b46:	00008517          	auipc	a0,0x8
    80002b4a:	7aa50513          	addi	a0,a0,1962 # 8000b2f0 <etext+0x2f0>
    80002b4e:	00006097          	auipc	ra,0x6
    80002b52:	3e8080e7          	jalr	1000(ra) # 80008f36 <panic>

  if((which_dev = devintr()) == 0){
    80002b56:	00000097          	auipc	ra,0x0
    80002b5a:	118080e7          	jalr	280(ra) # 80002c6e <devintr>
    80002b5e:	87aa                	mv	a5,a0
    80002b60:	fcf42e23          	sw	a5,-36(s0)
    80002b64:	fdc42783          	lw	a5,-36(s0)
    80002b68:	2781                	sext.w	a5,a5
    80002b6a:	e7b9                	bnez	a5,80002bb8 <kerneltrap+0xca>
    printf("scause %p\n", scause);
    80002b6c:	fc043583          	ld	a1,-64(s0)
    80002b70:	00008517          	auipc	a0,0x8
    80002b74:	7a050513          	addi	a0,a0,1952 # 8000b310 <etext+0x310>
    80002b78:	00006097          	auipc	ra,0x6
    80002b7c:	168080e7          	jalr	360(ra) # 80008ce0 <printf>
    printf("sepc=%p stval=%p\n", r_sepc(), r_stval());
    80002b80:	00000097          	auipc	ra,0x0
    80002b84:	b8c080e7          	jalr	-1140(ra) # 8000270c <r_sepc>
    80002b88:	84aa                	mv	s1,a0
    80002b8a:	00000097          	auipc	ra,0x0
    80002b8e:	bea080e7          	jalr	-1046(ra) # 80002774 <r_stval>
    80002b92:	87aa                	mv	a5,a0
    80002b94:	863e                	mv	a2,a5
    80002b96:	85a6                	mv	a1,s1
    80002b98:	00008517          	auipc	a0,0x8
    80002b9c:	78850513          	addi	a0,a0,1928 # 8000b320 <etext+0x320>
    80002ba0:	00006097          	auipc	ra,0x6
    80002ba4:	140080e7          	jalr	320(ra) # 80008ce0 <printf>
    panic("kerneltrap");
    80002ba8:	00008517          	auipc	a0,0x8
    80002bac:	79050513          	addi	a0,a0,1936 # 8000b338 <etext+0x338>
    80002bb0:	00006097          	auipc	ra,0x6
    80002bb4:	386080e7          	jalr	902(ra) # 80008f36 <panic>
  }

  // give up the CPU if this is a timer interrupt.
  if(which_dev == 2 && myproc() != 0 && myproc()->state == RUNNING)
    80002bb8:	fdc42783          	lw	a5,-36(s0)
    80002bbc:	0007871b          	sext.w	a4,a5
    80002bc0:	4789                	li	a5,2
    80002bc2:	02f71663          	bne	a4,a5,80002bee <kerneltrap+0x100>
    80002bc6:	fffff097          	auipc	ra,0xfffff
    80002bca:	a3a080e7          	jalr	-1478(ra) # 80001600 <myproc>
    80002bce:	87aa                	mv	a5,a0
    80002bd0:	cf99                	beqz	a5,80002bee <kerneltrap+0x100>
    80002bd2:	fffff097          	auipc	ra,0xfffff
    80002bd6:	a2e080e7          	jalr	-1490(ra) # 80001600 <myproc>
    80002bda:	87aa                	mv	a5,a0
    80002bdc:	4f9c                	lw	a5,24(a5)
    80002bde:	873e                	mv	a4,a5
    80002be0:	4791                	li	a5,4
    80002be2:	00f71663          	bne	a4,a5,80002bee <kerneltrap+0x100>
    yield();
    80002be6:	fffff097          	auipc	ra,0xfffff
    80002bea:	55a080e7          	jalr	1370(ra) # 80002140 <yield>

  // the yield() may have caused some traps to occur,
  // so restore trap registers for use by kernelvec.S's sepc instruction.
  w_sepc(sepc);
    80002bee:	fd043503          	ld	a0,-48(s0)
    80002bf2:	00000097          	auipc	ra,0x0
    80002bf6:	b00080e7          	jalr	-1280(ra) # 800026f2 <w_sepc>
  w_sstatus(sstatus);
    80002bfa:	fc843503          	ld	a0,-56(s0)
    80002bfe:	00000097          	auipc	ra,0x0
    80002c02:	aa6080e7          	jalr	-1370(ra) # 800026a4 <w_sstatus>
}
    80002c06:	0001                	nop
    80002c08:	70e2                	ld	ra,56(sp)
    80002c0a:	7442                	ld	s0,48(sp)
    80002c0c:	74a2                	ld	s1,40(sp)
    80002c0e:	6121                	addi	sp,sp,64
    80002c10:	8082                	ret

0000000080002c12 <clockintr>:

void
clockintr()
{
    80002c12:	1141                	addi	sp,sp,-16
    80002c14:	e406                	sd	ra,8(sp)
    80002c16:	e022                	sd	s0,0(sp)
    80002c18:	0800                	addi	s0,sp,16
  acquire(&tickslock);
    80002c1a:	0000f517          	auipc	a0,0xf
    80002c1e:	eae50513          	addi	a0,a0,-338 # 80011ac8 <tickslock>
    80002c22:	00006097          	auipc	ra,0x6
    80002c26:	75c080e7          	jalr	1884(ra) # 8000937e <acquire>
  ticks++;
    80002c2a:	00009797          	auipc	a5,0x9
    80002c2e:	e2678793          	addi	a5,a5,-474 # 8000ba50 <ticks>
    80002c32:	439c                	lw	a5,0(a5)
    80002c34:	2785                	addiw	a5,a5,1
    80002c36:	0007871b          	sext.w	a4,a5
    80002c3a:	00009797          	auipc	a5,0x9
    80002c3e:	e1678793          	addi	a5,a5,-490 # 8000ba50 <ticks>
    80002c42:	c398                	sw	a4,0(a5)
  wakeup(&ticks);
    80002c44:	00009517          	auipc	a0,0x9
    80002c48:	e0c50513          	addi	a0,a0,-500 # 8000ba50 <ticks>
    80002c4c:	fffff097          	auipc	ra,0xfffff
    80002c50:	60a080e7          	jalr	1546(ra) # 80002256 <wakeup>
  release(&tickslock);
    80002c54:	0000f517          	auipc	a0,0xf
    80002c58:	e7450513          	addi	a0,a0,-396 # 80011ac8 <tickslock>
    80002c5c:	00006097          	auipc	ra,0x6
    80002c60:	786080e7          	jalr	1926(ra) # 800093e2 <release>
}
    80002c64:	0001                	nop
    80002c66:	60a2                	ld	ra,8(sp)
    80002c68:	6402                	ld	s0,0(sp)
    80002c6a:	0141                	addi	sp,sp,16
    80002c6c:	8082                	ret

0000000080002c6e <devintr>:
// returns 2 if timer interrupt,
// 1 if other device,
// 0 if not recognized.
int
devintr()
{
    80002c6e:	1101                	addi	sp,sp,-32
    80002c70:	ec06                	sd	ra,24(sp)
    80002c72:	e822                	sd	s0,16(sp)
    80002c74:	1000                	addi	s0,sp,32
  uint64 scause = r_scause();
    80002c76:	00000097          	auipc	ra,0x0
    80002c7a:	ae4080e7          	jalr	-1308(ra) # 8000275a <r_scause>
    80002c7e:	fea43423          	sd	a0,-24(s0)

  if((scause & 0x8000000000000000L) &&
    80002c82:	fe843783          	ld	a5,-24(s0)
    80002c86:	0807d463          	bgez	a5,80002d0e <devintr+0xa0>
     (scause & 0xff) == 9){
    80002c8a:	fe843783          	ld	a5,-24(s0)
    80002c8e:	0ff7f713          	zext.b	a4,a5
  if((scause & 0x8000000000000000L) &&
    80002c92:	47a5                	li	a5,9
    80002c94:	06f71d63          	bne	a4,a5,80002d0e <devintr+0xa0>
    // this is a supervisor external interrupt, via PLIC.

    // irq indicates which device interrupted.
    int irq = plic_claim();
    80002c98:	00005097          	auipc	ra,0x5
    80002c9c:	b5a080e7          	jalr	-1190(ra) # 800077f2 <plic_claim>
    80002ca0:	87aa                	mv	a5,a0
    80002ca2:	fef42223          	sw	a5,-28(s0)

    if(irq == UART0_IRQ){
    80002ca6:	fe442783          	lw	a5,-28(s0)
    80002caa:	0007871b          	sext.w	a4,a5
    80002cae:	47a9                	li	a5,10
    80002cb0:	00f71763          	bne	a4,a5,80002cbe <devintr+0x50>
      uartintr();
    80002cb4:	00006097          	auipc	ra,0x6
    80002cb8:	57e080e7          	jalr	1406(ra) # 80009232 <uartintr>
    80002cbc:	a825                	j	80002cf4 <devintr+0x86>
    } else if(irq == VIRTIO0_IRQ){
    80002cbe:	fe442783          	lw	a5,-28(s0)
    80002cc2:	0007871b          	sext.w	a4,a5
    80002cc6:	4785                	li	a5,1
    80002cc8:	00f71763          	bne	a4,a5,80002cd6 <devintr+0x68>
      virtio_disk_intr();
    80002ccc:	00005097          	auipc	ra,0x5
    80002cd0:	4e8080e7          	jalr	1256(ra) # 800081b4 <virtio_disk_intr>
    80002cd4:	a005                	j	80002cf4 <devintr+0x86>
    } else if(irq){
    80002cd6:	fe442783          	lw	a5,-28(s0)
    80002cda:	2781                	sext.w	a5,a5
    80002cdc:	cf81                	beqz	a5,80002cf4 <devintr+0x86>
      printf("unexpected interrupt irq=%d\n", irq);
    80002cde:	fe442783          	lw	a5,-28(s0)
    80002ce2:	85be                	mv	a1,a5
    80002ce4:	00008517          	auipc	a0,0x8
    80002ce8:	66450513          	addi	a0,a0,1636 # 8000b348 <etext+0x348>
    80002cec:	00006097          	auipc	ra,0x6
    80002cf0:	ff4080e7          	jalr	-12(ra) # 80008ce0 <printf>
    }

    // the PLIC allows each device to raise at most one
    // interrupt at a time; tell the PLIC the device is
    // now allowed to interrupt again.
    if(irq)
    80002cf4:	fe442783          	lw	a5,-28(s0)
    80002cf8:	2781                	sext.w	a5,a5
    80002cfa:	cb81                	beqz	a5,80002d0a <devintr+0x9c>
      plic_complete(irq);
    80002cfc:	fe442783          	lw	a5,-28(s0)
    80002d00:	853e                	mv	a0,a5
    80002d02:	00005097          	auipc	ra,0x5
    80002d06:	b2e080e7          	jalr	-1234(ra) # 80007830 <plic_complete>

    return 1;
    80002d0a:	4785                	li	a5,1
    80002d0c:	a081                	j	80002d4c <devintr+0xde>
  } else if(scause == 0x8000000000000001L){
    80002d0e:	fe843703          	ld	a4,-24(s0)
    80002d12:	57fd                	li	a5,-1
    80002d14:	17fe                	slli	a5,a5,0x3f
    80002d16:	0785                	addi	a5,a5,1
    80002d18:	02f71963          	bne	a4,a5,80002d4a <devintr+0xdc>
    // software interrupt from a machine-mode timer interrupt,
    // forwarded by timervec in kernelvec.S.

    if(cpuid() == 0){
    80002d1c:	fffff097          	auipc	ra,0xfffff
    80002d20:	886080e7          	jalr	-1914(ra) # 800015a2 <cpuid>
    80002d24:	87aa                	mv	a5,a0
    80002d26:	e789                	bnez	a5,80002d30 <devintr+0xc2>
      clockintr();
    80002d28:	00000097          	auipc	ra,0x0
    80002d2c:	eea080e7          	jalr	-278(ra) # 80002c12 <clockintr>
    }
    
    // acknowledge the software interrupt by clearing
    // the SSIP bit in sip.
    w_sip(r_sip() & ~2);
    80002d30:	00000097          	auipc	ra,0x0
    80002d34:	98e080e7          	jalr	-1650(ra) # 800026be <r_sip>
    80002d38:	87aa                	mv	a5,a0
    80002d3a:	9bf5                	andi	a5,a5,-3
    80002d3c:	853e                	mv	a0,a5
    80002d3e:	00000097          	auipc	ra,0x0
    80002d42:	99a080e7          	jalr	-1638(ra) # 800026d8 <w_sip>

    return 2;
    80002d46:	4789                	li	a5,2
    80002d48:	a011                	j	80002d4c <devintr+0xde>
  } else {
    return 0;
    80002d4a:	4781                	li	a5,0
  }
}
    80002d4c:	853e                	mv	a0,a5
    80002d4e:	60e2                	ld	ra,24(sp)
    80002d50:	6442                	ld	s0,16(sp)
    80002d52:	6105                	addi	sp,sp,32
    80002d54:	8082                	ret

0000000080002d56 <fetchaddr>:
#include "defs.h"

// Fetch the uint64 at addr from the current process.
int
fetchaddr(uint64 addr, uint64 *ip)
{
    80002d56:	7179                	addi	sp,sp,-48
    80002d58:	f406                	sd	ra,40(sp)
    80002d5a:	f022                	sd	s0,32(sp)
    80002d5c:	1800                	addi	s0,sp,48
    80002d5e:	fca43c23          	sd	a0,-40(s0)
    80002d62:	fcb43823          	sd	a1,-48(s0)
  struct proc *p = myproc();
    80002d66:	fffff097          	auipc	ra,0xfffff
    80002d6a:	89a080e7          	jalr	-1894(ra) # 80001600 <myproc>
    80002d6e:	fea43423          	sd	a0,-24(s0)
  if(addr >= p->sz || addr+sizeof(uint64) > p->sz) // both tests needed, in case of overflow
    80002d72:	fe843783          	ld	a5,-24(s0)
    80002d76:	67bc                	ld	a5,72(a5)
    80002d78:	fd843703          	ld	a4,-40(s0)
    80002d7c:	00f77b63          	bgeu	a4,a5,80002d92 <fetchaddr+0x3c>
    80002d80:	fd843783          	ld	a5,-40(s0)
    80002d84:	00878713          	addi	a4,a5,8
    80002d88:	fe843783          	ld	a5,-24(s0)
    80002d8c:	67bc                	ld	a5,72(a5)
    80002d8e:	00e7f463          	bgeu	a5,a4,80002d96 <fetchaddr+0x40>
    return -1;
    80002d92:	57fd                	li	a5,-1
    80002d94:	a01d                	j	80002dba <fetchaddr+0x64>
  if(copyin(p->pagetable, (char *)ip, addr, sizeof(*ip)) != 0)
    80002d96:	fe843783          	ld	a5,-24(s0)
    80002d9a:	6bbc                	ld	a5,80(a5)
    80002d9c:	46a1                	li	a3,8
    80002d9e:	fd843603          	ld	a2,-40(s0)
    80002da2:	fd043583          	ld	a1,-48(s0)
    80002da6:	853e                	mv	a0,a5
    80002da8:	ffffe097          	auipc	ra,0xffffe
    80002dac:	3f0080e7          	jalr	1008(ra) # 80001198 <copyin>
    80002db0:	87aa                	mv	a5,a0
    80002db2:	c399                	beqz	a5,80002db8 <fetchaddr+0x62>
    return -1;
    80002db4:	57fd                	li	a5,-1
    80002db6:	a011                	j	80002dba <fetchaddr+0x64>
  return 0;
    80002db8:	4781                	li	a5,0
}
    80002dba:	853e                	mv	a0,a5
    80002dbc:	70a2                	ld	ra,40(sp)
    80002dbe:	7402                	ld	s0,32(sp)
    80002dc0:	6145                	addi	sp,sp,48
    80002dc2:	8082                	ret

0000000080002dc4 <fetchstr>:

// Fetch the nul-terminated string at addr from the current process.
// Returns length of string, not including nul, or -1 for error.
int
fetchstr(uint64 addr, char *buf, int max)
{
    80002dc4:	7139                	addi	sp,sp,-64
    80002dc6:	fc06                	sd	ra,56(sp)
    80002dc8:	f822                	sd	s0,48(sp)
    80002dca:	0080                	addi	s0,sp,64
    80002dcc:	fca43c23          	sd	a0,-40(s0)
    80002dd0:	fcb43823          	sd	a1,-48(s0)
    80002dd4:	87b2                	mv	a5,a2
    80002dd6:	fcf42623          	sw	a5,-52(s0)
  struct proc *p = myproc();
    80002dda:	fffff097          	auipc	ra,0xfffff
    80002dde:	826080e7          	jalr	-2010(ra) # 80001600 <myproc>
    80002de2:	fea43423          	sd	a0,-24(s0)
  if(copyinstr(p->pagetable, buf, addr, max) < 0)
    80002de6:	fe843783          	ld	a5,-24(s0)
    80002dea:	6bbc                	ld	a5,80(a5)
    80002dec:	fcc42703          	lw	a4,-52(s0)
    80002df0:	86ba                	mv	a3,a4
    80002df2:	fd843603          	ld	a2,-40(s0)
    80002df6:	fd043583          	ld	a1,-48(s0)
    80002dfa:	853e                	mv	a0,a5
    80002dfc:	ffffe097          	auipc	ra,0xffffe
    80002e00:	46a080e7          	jalr	1130(ra) # 80001266 <copyinstr>
    80002e04:	87aa                	mv	a5,a0
    80002e06:	0007d463          	bgez	a5,80002e0e <fetchstr+0x4a>
    return -1;
    80002e0a:	57fd                	li	a5,-1
    80002e0c:	a801                	j	80002e1c <fetchstr+0x58>
  return strlen(buf);
    80002e0e:	fd043503          	ld	a0,-48(s0)
    80002e12:	ffffd097          	auipc	ra,0xffffd
    80002e16:	77a080e7          	jalr	1914(ra) # 8000058c <strlen>
    80002e1a:	87aa                	mv	a5,a0
}
    80002e1c:	853e                	mv	a0,a5
    80002e1e:	70e2                	ld	ra,56(sp)
    80002e20:	7442                	ld	s0,48(sp)
    80002e22:	6121                	addi	sp,sp,64
    80002e24:	8082                	ret

0000000080002e26 <argraw>:

static uint64
argraw(int n)
{
    80002e26:	7179                	addi	sp,sp,-48
    80002e28:	f406                	sd	ra,40(sp)
    80002e2a:	f022                	sd	s0,32(sp)
    80002e2c:	1800                	addi	s0,sp,48
    80002e2e:	87aa                	mv	a5,a0
    80002e30:	fcf42e23          	sw	a5,-36(s0)
  struct proc *p = myproc();
    80002e34:	ffffe097          	auipc	ra,0xffffe
    80002e38:	7cc080e7          	jalr	1996(ra) # 80001600 <myproc>
    80002e3c:	fea43423          	sd	a0,-24(s0)
  switch (n) {
    80002e40:	fdc42783          	lw	a5,-36(s0)
    80002e44:	0007871b          	sext.w	a4,a5
    80002e48:	4795                	li	a5,5
    80002e4a:	06e7e263          	bltu	a5,a4,80002eae <argraw+0x88>
    80002e4e:	fdc46783          	lwu	a5,-36(s0)
    80002e52:	00279713          	slli	a4,a5,0x2
    80002e56:	00008797          	auipc	a5,0x8
    80002e5a:	51a78793          	addi	a5,a5,1306 # 8000b370 <etext+0x370>
    80002e5e:	97ba                	add	a5,a5,a4
    80002e60:	439c                	lw	a5,0(a5)
    80002e62:	0007871b          	sext.w	a4,a5
    80002e66:	00008797          	auipc	a5,0x8
    80002e6a:	50a78793          	addi	a5,a5,1290 # 8000b370 <etext+0x370>
    80002e6e:	97ba                	add	a5,a5,a4
    80002e70:	8782                	jr	a5
  case 0:
    return p->trapframe->a0;
    80002e72:	fe843783          	ld	a5,-24(s0)
    80002e76:	6fbc                	ld	a5,88(a5)
    80002e78:	7bbc                	ld	a5,112(a5)
    80002e7a:	a091                	j	80002ebe <argraw+0x98>
  case 1:
    return p->trapframe->a1;
    80002e7c:	fe843783          	ld	a5,-24(s0)
    80002e80:	6fbc                	ld	a5,88(a5)
    80002e82:	7fbc                	ld	a5,120(a5)
    80002e84:	a82d                	j	80002ebe <argraw+0x98>
  case 2:
    return p->trapframe->a2;
    80002e86:	fe843783          	ld	a5,-24(s0)
    80002e8a:	6fbc                	ld	a5,88(a5)
    80002e8c:	63dc                	ld	a5,128(a5)
    80002e8e:	a805                	j	80002ebe <argraw+0x98>
  case 3:
    return p->trapframe->a3;
    80002e90:	fe843783          	ld	a5,-24(s0)
    80002e94:	6fbc                	ld	a5,88(a5)
    80002e96:	67dc                	ld	a5,136(a5)
    80002e98:	a01d                	j	80002ebe <argraw+0x98>
  case 4:
    return p->trapframe->a4;
    80002e9a:	fe843783          	ld	a5,-24(s0)
    80002e9e:	6fbc                	ld	a5,88(a5)
    80002ea0:	6bdc                	ld	a5,144(a5)
    80002ea2:	a831                	j	80002ebe <argraw+0x98>
  case 5:
    return p->trapframe->a5;
    80002ea4:	fe843783          	ld	a5,-24(s0)
    80002ea8:	6fbc                	ld	a5,88(a5)
    80002eaa:	6fdc                	ld	a5,152(a5)
    80002eac:	a809                	j	80002ebe <argraw+0x98>
  }
  panic("argraw");
    80002eae:	00008517          	auipc	a0,0x8
    80002eb2:	4ba50513          	addi	a0,a0,1210 # 8000b368 <etext+0x368>
    80002eb6:	00006097          	auipc	ra,0x6
    80002eba:	080080e7          	jalr	128(ra) # 80008f36 <panic>
  return -1;
}
    80002ebe:	853e                	mv	a0,a5
    80002ec0:	70a2                	ld	ra,40(sp)
    80002ec2:	7402                	ld	s0,32(sp)
    80002ec4:	6145                	addi	sp,sp,48
    80002ec6:	8082                	ret

0000000080002ec8 <argint>:

// Fetch the nth 32-bit system call argument.
void
argint(int n, int *ip)
{
    80002ec8:	1101                	addi	sp,sp,-32
    80002eca:	ec06                	sd	ra,24(sp)
    80002ecc:	e822                	sd	s0,16(sp)
    80002ece:	1000                	addi	s0,sp,32
    80002ed0:	87aa                	mv	a5,a0
    80002ed2:	feb43023          	sd	a1,-32(s0)
    80002ed6:	fef42623          	sw	a5,-20(s0)
  *ip = argraw(n);
    80002eda:	fec42783          	lw	a5,-20(s0)
    80002ede:	853e                	mv	a0,a5
    80002ee0:	00000097          	auipc	ra,0x0
    80002ee4:	f46080e7          	jalr	-186(ra) # 80002e26 <argraw>
    80002ee8:	87aa                	mv	a5,a0
    80002eea:	0007871b          	sext.w	a4,a5
    80002eee:	fe043783          	ld	a5,-32(s0)
    80002ef2:	c398                	sw	a4,0(a5)
}
    80002ef4:	0001                	nop
    80002ef6:	60e2                	ld	ra,24(sp)
    80002ef8:	6442                	ld	s0,16(sp)
    80002efa:	6105                	addi	sp,sp,32
    80002efc:	8082                	ret

0000000080002efe <argaddr>:
// Retrieve an argument as a pointer.
// Doesn't check for legality, since
// copyin/copyout will do that.
void
argaddr(int n, uint64 *ip)
{
    80002efe:	1101                	addi	sp,sp,-32
    80002f00:	ec06                	sd	ra,24(sp)
    80002f02:	e822                	sd	s0,16(sp)
    80002f04:	1000                	addi	s0,sp,32
    80002f06:	87aa                	mv	a5,a0
    80002f08:	feb43023          	sd	a1,-32(s0)
    80002f0c:	fef42623          	sw	a5,-20(s0)
  *ip = argraw(n);
    80002f10:	fec42783          	lw	a5,-20(s0)
    80002f14:	853e                	mv	a0,a5
    80002f16:	00000097          	auipc	ra,0x0
    80002f1a:	f10080e7          	jalr	-240(ra) # 80002e26 <argraw>
    80002f1e:	872a                	mv	a4,a0
    80002f20:	fe043783          	ld	a5,-32(s0)
    80002f24:	e398                	sd	a4,0(a5)
}
    80002f26:	0001                	nop
    80002f28:	60e2                	ld	ra,24(sp)
    80002f2a:	6442                	ld	s0,16(sp)
    80002f2c:	6105                	addi	sp,sp,32
    80002f2e:	8082                	ret

0000000080002f30 <argstr>:
// Fetch the nth word-sized system call argument as a null-terminated string.
// Copies into buf, at most max.
// Returns string length if OK (including nul), -1 if error.
int
argstr(int n, char *buf, int max)
{
    80002f30:	7179                	addi	sp,sp,-48
    80002f32:	f406                	sd	ra,40(sp)
    80002f34:	f022                	sd	s0,32(sp)
    80002f36:	1800                	addi	s0,sp,48
    80002f38:	87aa                	mv	a5,a0
    80002f3a:	fcb43823          	sd	a1,-48(s0)
    80002f3e:	8732                	mv	a4,a2
    80002f40:	fcf42e23          	sw	a5,-36(s0)
    80002f44:	87ba                	mv	a5,a4
    80002f46:	fcf42c23          	sw	a5,-40(s0)
  uint64 addr;
  argaddr(n, &addr);
    80002f4a:	fe840713          	addi	a4,s0,-24
    80002f4e:	fdc42783          	lw	a5,-36(s0)
    80002f52:	85ba                	mv	a1,a4
    80002f54:	853e                	mv	a0,a5
    80002f56:	00000097          	auipc	ra,0x0
    80002f5a:	fa8080e7          	jalr	-88(ra) # 80002efe <argaddr>
  return fetchstr(addr, buf, max);
    80002f5e:	fe843783          	ld	a5,-24(s0)
    80002f62:	fd842703          	lw	a4,-40(s0)
    80002f66:	863a                	mv	a2,a4
    80002f68:	fd043583          	ld	a1,-48(s0)
    80002f6c:	853e                	mv	a0,a5
    80002f6e:	00000097          	auipc	ra,0x0
    80002f72:	e56080e7          	jalr	-426(ra) # 80002dc4 <fetchstr>
    80002f76:	87aa                	mv	a5,a0
}
    80002f78:	853e                	mv	a0,a5
    80002f7a:	70a2                	ld	ra,40(sp)
    80002f7c:	7402                	ld	s0,32(sp)
    80002f7e:	6145                	addi	sp,sp,48
    80002f80:	8082                	ret

0000000080002f82 <syscall>:
[SYS_sysinfo] "sysinfo",
};

void
syscall(void)
{
    80002f82:	7179                	addi	sp,sp,-48
    80002f84:	f406                	sd	ra,40(sp)
    80002f86:	f022                	sd	s0,32(sp)
    80002f88:	ec26                	sd	s1,24(sp)
    80002f8a:	1800                	addi	s0,sp,48
  int num;
  struct proc *p = myproc();
    80002f8c:	ffffe097          	auipc	ra,0xffffe
    80002f90:	674080e7          	jalr	1652(ra) # 80001600 <myproc>
    80002f94:	fca43c23          	sd	a0,-40(s0)

  num = p->trapframe->a7;
    80002f98:	fd843783          	ld	a5,-40(s0)
    80002f9c:	6fbc                	ld	a5,88(a5)
    80002f9e:	77dc                	ld	a5,168(a5)
    80002fa0:	fcf42a23          	sw	a5,-44(s0)
  if(num > 0 && num < NELEM(syscalls) && syscalls[num]) {
    80002fa4:	fd442783          	lw	a5,-44(s0)
    80002fa8:	2781                	sext.w	a5,a5
    80002faa:	08f05c63          	blez	a5,80003042 <syscall+0xc0>
    80002fae:	fd442783          	lw	a5,-44(s0)
    80002fb2:	873e                	mv	a4,a5
    80002fb4:	47dd                	li	a5,23
    80002fb6:	08e7e663          	bltu	a5,a4,80003042 <syscall+0xc0>
    80002fba:	00009717          	auipc	a4,0x9
    80002fbe:	8ee70713          	addi	a4,a4,-1810 # 8000b8a8 <syscalls>
    80002fc2:	fd442783          	lw	a5,-44(s0)
    80002fc6:	078e                	slli	a5,a5,0x3
    80002fc8:	97ba                	add	a5,a5,a4
    80002fca:	639c                	ld	a5,0(a5)
    80002fcc:	cbbd                	beqz	a5,80003042 <syscall+0xc0>
    // Use num to lookup the system call function for num, call it,
    // and store its return value in p->trapframe->a0
    p->trapframe->a0 = syscalls[num]();
    80002fce:	00009717          	auipc	a4,0x9
    80002fd2:	8da70713          	addi	a4,a4,-1830 # 8000b8a8 <syscalls>
    80002fd6:	fd442783          	lw	a5,-44(s0)
    80002fda:	078e                	slli	a5,a5,0x3
    80002fdc:	97ba                	add	a5,a5,a4
    80002fde:	639c                	ld	a5,0(a5)
    80002fe0:	fd843703          	ld	a4,-40(s0)
    80002fe4:	6f24                	ld	s1,88(a4)
    80002fe6:	9782                	jalr	a5
    80002fe8:	87aa                	mv	a5,a0
    80002fea:	f8bc                	sd	a5,112(s1)

    if ((1 << num) & p->trace_mask) {
    80002fec:	fd442783          	lw	a5,-44(s0)
    80002ff0:	873e                	mv	a4,a5
    80002ff2:	4785                	li	a5,1
    80002ff4:	00e797bb          	sllw	a5,a5,a4
    80002ff8:	2781                	sext.w	a5,a5
    80002ffa:	0007871b          	sext.w	a4,a5
    80002ffe:	fd843783          	ld	a5,-40(s0)
    80003002:	1687a783          	lw	a5,360(a5)
    80003006:	8ff9                	and	a5,a5,a4
    80003008:	2781                	sext.w	a5,a5
    8000300a:	c7ad                	beqz	a5,80003074 <syscall+0xf2>
      printf("%d: syscall %s -> %d\n", p->pid, syscalls_str[num], p->trapframe->a0);
    8000300c:	fd843783          	ld	a5,-40(s0)
    80003010:	5b8c                	lw	a1,48(a5)
    80003012:	00009717          	auipc	a4,0x9
    80003016:	95670713          	addi	a4,a4,-1706 # 8000b968 <syscalls_str>
    8000301a:	fd442783          	lw	a5,-44(s0)
    8000301e:	078e                	slli	a5,a5,0x3
    80003020:	97ba                	add	a5,a5,a4
    80003022:	6398                	ld	a4,0(a5)
    80003024:	fd843783          	ld	a5,-40(s0)
    80003028:	6fbc                	ld	a5,88(a5)
    8000302a:	7bbc                	ld	a5,112(a5)
    8000302c:	86be                	mv	a3,a5
    8000302e:	863a                	mv	a2,a4
    80003030:	00008517          	auipc	a0,0x8
    80003034:	41050513          	addi	a0,a0,1040 # 8000b440 <etext+0x440>
    80003038:	00006097          	auipc	ra,0x6
    8000303c:	ca8080e7          	jalr	-856(ra) # 80008ce0 <printf>
    if ((1 << num) & p->trace_mask) {
    80003040:	a815                	j	80003074 <syscall+0xf2>
    }
  } else {
    printf("%d %s: unknown sys call %d\n",
    80003042:	fd843783          	ld	a5,-40(s0)
    80003046:	5b98                	lw	a4,48(a5)
            p->pid, p->name, num);
    80003048:	fd843783          	ld	a5,-40(s0)
    8000304c:	15878793          	addi	a5,a5,344
    printf("%d %s: unknown sys call %d\n",
    80003050:	fd442683          	lw	a3,-44(s0)
    80003054:	863e                	mv	a2,a5
    80003056:	85ba                	mv	a1,a4
    80003058:	00008517          	auipc	a0,0x8
    8000305c:	40050513          	addi	a0,a0,1024 # 8000b458 <etext+0x458>
    80003060:	00006097          	auipc	ra,0x6
    80003064:	c80080e7          	jalr	-896(ra) # 80008ce0 <printf>
    p->trapframe->a0 = -1;
    80003068:	fd843783          	ld	a5,-40(s0)
    8000306c:	6fbc                	ld	a5,88(a5)
    8000306e:	577d                	li	a4,-1
    80003070:	fbb8                	sd	a4,112(a5)
  }
}
    80003072:	0001                	nop
    80003074:	0001                	nop
    80003076:	70a2                	ld	ra,40(sp)
    80003078:	7402                	ld	s0,32(sp)
    8000307a:	64e2                	ld	s1,24(sp)
    8000307c:	6145                	addi	sp,sp,48
    8000307e:	8082                	ret

0000000080003080 <sys_exit>:
#include "proc.h"
#include "sysinfo.h"

uint64
sys_exit(void)
{
    80003080:	1101                	addi	sp,sp,-32
    80003082:	ec06                	sd	ra,24(sp)
    80003084:	e822                	sd	s0,16(sp)
    80003086:	1000                	addi	s0,sp,32
  int n;
  argint(0, &n);
    80003088:	fec40793          	addi	a5,s0,-20
    8000308c:	85be                	mv	a1,a5
    8000308e:	4501                	li	a0,0
    80003090:	00000097          	auipc	ra,0x0
    80003094:	e38080e7          	jalr	-456(ra) # 80002ec8 <argint>
  exit(n);
    80003098:	fec42783          	lw	a5,-20(s0)
    8000309c:	853e                	mv	a0,a5
    8000309e:	fffff097          	auipc	ra,0xfffff
    800030a2:	c6c080e7          	jalr	-916(ra) # 80001d0a <exit>
  return 0;  // not reached
    800030a6:	4781                	li	a5,0
}
    800030a8:	853e                	mv	a0,a5
    800030aa:	60e2                	ld	ra,24(sp)
    800030ac:	6442                	ld	s0,16(sp)
    800030ae:	6105                	addi	sp,sp,32
    800030b0:	8082                	ret

00000000800030b2 <sys_getpid>:

uint64
sys_getpid(void)
{
    800030b2:	1141                	addi	sp,sp,-16
    800030b4:	e406                	sd	ra,8(sp)
    800030b6:	e022                	sd	s0,0(sp)
    800030b8:	0800                	addi	s0,sp,16
  return myproc()->pid;
    800030ba:	ffffe097          	auipc	ra,0xffffe
    800030be:	546080e7          	jalr	1350(ra) # 80001600 <myproc>
    800030c2:	87aa                	mv	a5,a0
    800030c4:	5b9c                	lw	a5,48(a5)
}
    800030c6:	853e                	mv	a0,a5
    800030c8:	60a2                	ld	ra,8(sp)
    800030ca:	6402                	ld	s0,0(sp)
    800030cc:	0141                	addi	sp,sp,16
    800030ce:	8082                	ret

00000000800030d0 <sys_fork>:

uint64
sys_fork(void)
{
    800030d0:	1141                	addi	sp,sp,-16
    800030d2:	e406                	sd	ra,8(sp)
    800030d4:	e022                	sd	s0,0(sp)
    800030d6:	0800                	addi	s0,sp,16
  return fork();
    800030d8:	fffff097          	auipc	ra,0xfffff
    800030dc:	a00080e7          	jalr	-1536(ra) # 80001ad8 <fork>
    800030e0:	87aa                	mv	a5,a0
}
    800030e2:	853e                	mv	a0,a5
    800030e4:	60a2                	ld	ra,8(sp)
    800030e6:	6402                	ld	s0,0(sp)
    800030e8:	0141                	addi	sp,sp,16
    800030ea:	8082                	ret

00000000800030ec <sys_wait>:

uint64
sys_wait(void)
{
    800030ec:	1101                	addi	sp,sp,-32
    800030ee:	ec06                	sd	ra,24(sp)
    800030f0:	e822                	sd	s0,16(sp)
    800030f2:	1000                	addi	s0,sp,32
  uint64 p;
  argaddr(0, &p);
    800030f4:	fe840793          	addi	a5,s0,-24
    800030f8:	85be                	mv	a1,a5
    800030fa:	4501                	li	a0,0
    800030fc:	00000097          	auipc	ra,0x0
    80003100:	e02080e7          	jalr	-510(ra) # 80002efe <argaddr>
  return wait(p);
    80003104:	fe843783          	ld	a5,-24(s0)
    80003108:	853e                	mv	a0,a5
    8000310a:	fffff097          	auipc	ra,0xfffff
    8000310e:	d3c080e7          	jalr	-708(ra) # 80001e46 <wait>
    80003112:	87aa                	mv	a5,a0
}
    80003114:	853e                	mv	a0,a5
    80003116:	60e2                	ld	ra,24(sp)
    80003118:	6442                	ld	s0,16(sp)
    8000311a:	6105                	addi	sp,sp,32
    8000311c:	8082                	ret

000000008000311e <sys_sbrk>:

uint64
sys_sbrk(void)
{
    8000311e:	1101                	addi	sp,sp,-32
    80003120:	ec06                	sd	ra,24(sp)
    80003122:	e822                	sd	s0,16(sp)
    80003124:	1000                	addi	s0,sp,32
  uint64 addr;
  int n;

  argint(0, &n);
    80003126:	fe440793          	addi	a5,s0,-28
    8000312a:	85be                	mv	a1,a5
    8000312c:	4501                	li	a0,0
    8000312e:	00000097          	auipc	ra,0x0
    80003132:	d9a080e7          	jalr	-614(ra) # 80002ec8 <argint>
  addr = myproc()->sz;
    80003136:	ffffe097          	auipc	ra,0xffffe
    8000313a:	4ca080e7          	jalr	1226(ra) # 80001600 <myproc>
    8000313e:	87aa                	mv	a5,a0
    80003140:	67bc                	ld	a5,72(a5)
    80003142:	fef43423          	sd	a5,-24(s0)
  if(growproc(n) < 0)
    80003146:	fe442783          	lw	a5,-28(s0)
    8000314a:	853e                	mv	a0,a5
    8000314c:	fffff097          	auipc	ra,0xfffff
    80003150:	8ec080e7          	jalr	-1812(ra) # 80001a38 <growproc>
    80003154:	87aa                	mv	a5,a0
    80003156:	0007d463          	bgez	a5,8000315e <sys_sbrk+0x40>
    return -1;
    8000315a:	57fd                	li	a5,-1
    8000315c:	a019                	j	80003162 <sys_sbrk+0x44>
  return addr;
    8000315e:	fe843783          	ld	a5,-24(s0)
}
    80003162:	853e                	mv	a0,a5
    80003164:	60e2                	ld	ra,24(sp)
    80003166:	6442                	ld	s0,16(sp)
    80003168:	6105                	addi	sp,sp,32
    8000316a:	8082                	ret

000000008000316c <sys_sleep>:

uint64
sys_sleep(void)
{
    8000316c:	1101                	addi	sp,sp,-32
    8000316e:	ec06                	sd	ra,24(sp)
    80003170:	e822                	sd	s0,16(sp)
    80003172:	1000                	addi	s0,sp,32
  int n;
  uint ticks0;

  argint(0, &n);
    80003174:	fe840793          	addi	a5,s0,-24
    80003178:	85be                	mv	a1,a5
    8000317a:	4501                	li	a0,0
    8000317c:	00000097          	auipc	ra,0x0
    80003180:	d4c080e7          	jalr	-692(ra) # 80002ec8 <argint>
  if(n < 0)
    80003184:	fe842783          	lw	a5,-24(s0)
    80003188:	0007d463          	bgez	a5,80003190 <sys_sleep+0x24>
    n = 0;
    8000318c:	fe042423          	sw	zero,-24(s0)
  acquire(&tickslock);
    80003190:	0000f517          	auipc	a0,0xf
    80003194:	93850513          	addi	a0,a0,-1736 # 80011ac8 <tickslock>
    80003198:	00006097          	auipc	ra,0x6
    8000319c:	1e6080e7          	jalr	486(ra) # 8000937e <acquire>
  ticks0 = ticks;
    800031a0:	00009797          	auipc	a5,0x9
    800031a4:	8b078793          	addi	a5,a5,-1872 # 8000ba50 <ticks>
    800031a8:	439c                	lw	a5,0(a5)
    800031aa:	fef42623          	sw	a5,-20(s0)
  while(ticks - ticks0 < n){
    800031ae:	a099                	j	800031f4 <sys_sleep+0x88>
    if(killed(myproc())){
    800031b0:	ffffe097          	auipc	ra,0xffffe
    800031b4:	450080e7          	jalr	1104(ra) # 80001600 <myproc>
    800031b8:	87aa                	mv	a5,a0
    800031ba:	853e                	mv	a0,a5
    800031bc:	fffff097          	auipc	ra,0xfffff
    800031c0:	208080e7          	jalr	520(ra) # 800023c4 <killed>
    800031c4:	87aa                	mv	a5,a0
    800031c6:	cb99                	beqz	a5,800031dc <sys_sleep+0x70>
      release(&tickslock);
    800031c8:	0000f517          	auipc	a0,0xf
    800031cc:	90050513          	addi	a0,a0,-1792 # 80011ac8 <tickslock>
    800031d0:	00006097          	auipc	ra,0x6
    800031d4:	212080e7          	jalr	530(ra) # 800093e2 <release>
